
Standby_Mode.elf:     file format elf32-littleriscv
Standby_Mode.elf
architecture: riscv:rv32, flags 0x00000112:
EXEC_P, HAS_SYMS, D_PAGED
start address 0x00000000

Program Header:
    LOAD off    0x00001000 vaddr 0x00000000 paddr 0x00000000 align 2**12
         filesz 0x000000a0 memsz 0x000000a0 flags r-x
    LOAD off    0x00002000 vaddr 0x20000000 paddr 0x000000a0 align 2**12
         filesz 0x0000000c memsz 0x0000000c flags r-x
    LOAD off    0x000020ac vaddr 0x000000ac paddr 0x000000ac align 2**12
         filesz 0x0000324c memsz 0x0000324c flags rwx
    LOAD off    0x0000600c vaddr 0x2000000c paddr 0x000032f8 align 2**12
         filesz 0x0000003c memsz 0x000000b8 flags rw-
    LOAD off    0x00006700 vaddr 0x20000700 paddr 0x20000700 align 2**12
         filesz 0x00000000 memsz 0x00000100 flags rw-

Sections:
Idx Name          Size      VMA       LMA       File off  Algn
  0 .init         000000a0  00000000  00000000  00001000  2**2
                  CONTENTS, ALLOC, LOAD, READONLY, CODE
  1 .highcodelalign 00000000  000000a0  000000a0  00006048  2**0
                  CONTENTS
  2 .highcode     0000000c  20000000  000000a0  00002000  2**1
                  CONTENTS, ALLOC, LOAD, READONLY, CODE
  3 .text         00003248  000000ac  000000ac  000020ac  2**2
                  CONTENTS, ALLOC, LOAD, READONLY, CODE
  4 .fini         00000000  000032f4  000032f4  00006048  2**0
                  CONTENTS, ALLOC, LOAD, CODE
  5 .init_array   00000004  000032f4  000032f4  000052f4  2**2
                  CONTENTS, ALLOC, LOAD, DATA
  6 .dalign       00000000  2000000c  2000000c  00006048  2**0
                  CONTENTS
  7 .dlalign      00000000  000032f8  000032f8  00006048  2**0
                  CONTENTS
  8 .data         0000003c  2000000c  000032f8  0000600c  2**2
                  CONTENTS, ALLOC, LOAD, DATA
  9 .bss          0000007c  20000048  00003334  00006048  2**3
                  ALLOC
 10 .stack        00000100  20000700  20000700  00006700  2**0
                  ALLOC
 11 .debug_info   00013c8f  00000000  00000000  00006048  2**0
                  CONTENTS, READONLY, DEBUGGING
 12 .debug_abbrev 00003592  00000000  00000000  00019cd7  2**0
                  CONTENTS, READONLY, DEBUGGING
 13 .debug_loc    00004989  00000000  00000000  0001d269  2**0
                  CONTENTS, READONLY, DEBUGGING
 14 .debug_aranges 00000a80  00000000  00000000  00021bf8  2**3
                  CONTENTS, READONLY, DEBUGGING
 15 .debug_ranges 00000ae0  00000000  00000000  00022678  2**3
                  CONTENTS, READONLY, DEBUGGING
 16 .debug_line   0000d865  00000000  00000000  00023158  2**0
                  CONTENTS, READONLY, DEBUGGING
 17 .debug_str    00003702  00000000  00000000  000309bd  2**0
                  CONTENTS, READONLY, DEBUGGING
 18 .comment      00000033  00000000  00000000  000340bf  2**0
                  CONTENTS, READONLY
 19 .debug_frame  000015f0  00000000  00000000  000340f4  2**2
                  CONTENTS, READONLY, DEBUGGING
SYMBOL TABLE:
00000000 l    d  .init	00000000 .init
000000a0 l    d  .highcodelalign	00000000 .highcodelalign
20000000 l    d  .highcode	00000000 .highcode
000000ac l    d  .text	00000000 .text
000032f4 l    d  .fini	00000000 .fini
000032f4 l    d  .init_array	00000000 .init_array
2000000c l    d  .dalign	00000000 .dalign
000032f8 l    d  .dlalign	00000000 .dlalign
2000000c l    d  .data	00000000 .data
20000048 l    d  .bss	00000000 .bss
20000700 l    d  .stack	00000000 .stack
00000000 l    d  .debug_info	00000000 .debug_info
00000000 l    d  .debug_abbrev	00000000 .debug_abbrev
00000000 l    d  .debug_loc	00000000 .debug_loc
00000000 l    d  .debug_aranges	00000000 .debug_aranges
00000000 l    d  .debug_ranges	00000000 .debug_ranges
00000000 l    d  .debug_line	00000000 .debug_line
00000000 l    d  .debug_str	00000000 .debug_str
00000000 l    d  .comment	00000000 .comment
00000000 l    d  .debug_frame	00000000 .debug_frame
00000000 l    df *ABS*	00000000 core_riscv.c
00000000 l    df *ABS*	00000000 buzzer.c
00000156 l     F .text	0000001a tone1.part.0
00000156 l     F .text	0000001a tone1_vol.part.1
00000000 l    df *ABS*	00000000 ch32v00x_it.c
00000000 l    df *ABS*	00000000 init.c
00000000 l    df *ABS*	00000000 main.cpp
00000502 l     F .text	00000048 Pwm::disable() [clone .isra.4]
00000d3c l     F .text	00000082 _GLOBAL__sub_I_b
00000000 l    df *ABS*	00000000 screens.cpp
200000b4 l     O .bss	00000004 ScreenNormal::step
200000b8 l     O .bss	00000004 ScreenBoostTime::step
00000000 l    df *ABS*	00000000 system_ch32v00x.c
00000000 l    df *ABS*	00000000 ch32v00x_exti.c
00000000 l    df *ABS*	00000000 ch32v00x_flash.c
00000000 l    df *ABS*	00000000 ch32v00x_gpio.c
00000000 l    df *ABS*	00000000 ch32v00x_misc.c
00000000 l    df *ABS*	00000000 ch32v00x_pwr.c
00000000 l    df *ABS*	00000000 ch32v00x_rcc.c
20000024 l     O .data	00000014 ADCPrescTable
20000038 l     O .data	00000010 APBAHBPrescTable
00000000 l    df *ABS*	00000000 ch32v00x_tim.c
00000000 l    df *ABS*	00000000 ch32v00x_usart.c
00000000 l    df *ABS*	00000000 debug.c
200000c0 l     O .bss	00000002 p_ms
200000c2 l     O .bss	00000001 p_us
00000000 l    df *ABS*	00000000 wchprintf.c
00001f14  w    F .text	00000004 printDouble
00001716 g     F .text	000000f4 PWR_EnterSTANDBYMode
00000750 g     F .text	0000003a EXTI_INT_INIT()
000014d0 g     F .text	0000001a FLASH_Unlock
00001a3c g     F .text	00000004 TIM_SetCompare2
00001f18  w    F .text	00000360 print
00002278  w    F .text	00000024 printf
20000848 g       .data	00000000 __global_pointer$
000013b4  w      .text	00000000 TIM1_CC_IRQHandler
00000412 g     F .text	00000020 HardFault_Handler
20000050 g     O .bss	00000018 b
00001df8  w    F .text	00000118 printInt
00001114 g     F .text	00000084 ScreenBoostEnable
00000432 g     F .text	00000026 SysTick_Handler
000013b4  w      .text	00000000 PVD_IRQHandler
2000008c g     O .bss	00000010 eeprom_boostTime
0000039e g     F .text	00000040 beep_Decrement_Min
00000400 g     F .text	00000012 NMI_Handler
00001530 g     F .text	00000034 FLASH_ProgramHalfWord
000003de g     F .text	00000022 beep_Save
00001b2c g     F .text	0000000a USART_GetFlagStatus
20000048 g       .bss	00000000 _sbss
00000100 g       *ABS*	00000000 __stack_size
00001c16 g     F .text	00000064 USART_Printf_Init
000000b6 g     F .text	0000000a .hidden __riscv_restore_2
000019f6 g     F .text	00000016 TIM_CtrlPWMOutputs
0000162a g     F .text	000000c4 GPIO_PinRemapConfig
00001f10  w    F .text	00000004 printLongLongInt
000019de g     F .text	00000018 TIM_Cmd
0000229c g     F .text	0000004a puts
20000020 g     O .data	00000004 SystemCoreClock
200000b0 g     O .bss	00000004 screen
000000e0 g     F .text	0000002c .hidden __udivsi3
000000a0 g       .init	00000000 _einit
000018be g     F .text	0000001e RCC_APB2PeriphClockCmd
00000290 g     F .text	0000001a buzzer_ok
0000159a g     F .text	0000007c GPIO_Init
0000057c  w    F .text	000001d4 uEeprom::init(unsigned short, unsigned short, unsigned short, unsigned short, char const*)
200000bc g     O .bss	00000004 NVIC_Priority_Group
000013b4  w      .text	00000000 SPI1_IRQHandler
00001b0e g     F .text	00000016 USART_Cmd
000000ac g     F .text	0000000a .hidden __riscv_save_1
000000b6 g     F .text	0000000a .hidden __riscv_restore_0
000013b4  w      .text	00000000 AWU_IRQHandler
000013b4  w      .text	00000000 EXTI7_0_IRQHandler
00000e1c g     F .text	00000040 beep(int)
00000e5c g     F .text	00000186 ScreenNormal
0000019a g     F .text	00000064 tone1
000018dc g     F .text	0000001e RCC_APB1PeriphClockCmd
20000700 g       .stack	00000000 _heap_end
000013b4  w      .text	00000000 DMA1_Channel4_IRQHandler
000013b4  w      .text	00000000 ADC1_IRQHandler
000014ea g     F .text	0000000e FLASH_Lock
000002aa g     F .text	00000010 buzzer_warning
200000c4 g       .bss	00000000 _ebss
000013b4  w      .text	00000000 DMA1_Channel7_IRQHandler
000001fe g     F .text	00000092 tone1_vol
00001ba8 g     F .text	00000034 Delay_Init
00000316 g     F .text	00000024 buzzer_startup
00001a0c g     F .text	0000001a TIM_ARRPreloadConfig
00001620 g     F .text	0000000a GPIO_WriteBit
0000010c g     F .text	00000008 .hidden __umodsi3
000013b4  w      .text	00000000 I2C1_EV_IRQHandler
000002ca g     F .text	0000001a buzzer_beepboop
00000824 g     F .text	000000ac gotoDeepSleep
0000181c g     F .text	000000a2 RCC_GetClocksFreq
000013b4  w      .text	00000000 DMA1_Channel6_IRQHandler
00001a40 g     F .text	000000ce USART_Init
000013b4  w      .text	00000000 RCC_IRQHandler
0000078a g     F .text	0000009a userEEPROM()
000013b4  w      .text	00000000 TIM1_TRG_COM_IRQHandler
000013b4  w      .text	00000000 DMA1_Channel1_IRQHandler
00000000 g       .init	00000000 _start
20000010 g     O .data	00000010 AHBPrescTable
2000006c g     O .bss	00000010 eeprom_boostEnable
00001510 g     F .text	00000020 FLASH_WaitForLastOperation
00001a26 g     F .text	00000016 TIM_OC2PreloadConfig
00001d12  w    F .text	000000e6 prints
00001948 g     F .text	00000096 TIM_OC2Init
20000000 g       .highcode	00000000 _highcode_vma_start
00001466 g     F .text	0000006a EXTI_Init
000000c0 g     F .text	00000014 .hidden __mulsi3
20000000 g     F .highcode	0000000a WFE
00001564 g     F .text	00000036 FLASH_ErasePage_Fast
000011d2 g     F .text	00000010 exit()
2000000c g       .dalign	00000000 _data_vma
00000458 g     F .text	000000aa init
00000dbe  w    F .text	0000005e uEeprom::set(unsigned short)
000016ee g     F .text	00000022 GPIO_EXTILineConfig
000002f2 g     F .text	00000024 buzzer_robot
0000180a g     F .text	00000012 RCC_AdjustHSICalibrationValue
000008d0 g     F .text	0000046c main
00000170 g     F .text	0000002a delayUsTone
20000068 g     O .bss	00000002 comandMotorOn
000013b4  w      .text	00000000 DMA1_Channel5_IRQHandler
00001bdc g     F .text	0000003a Delay_Ms
000000d8 g     F .text	00000058 .hidden __divsi3
000011e2 g     F .text	000000da ScreenBoostTime
000000a0 g       .highcodelalign	00000000 _highcode_lma
000012bc g     F .text	0000008c SystemInit
00001b36 g     F .text	00000072 delay
00001cca  w    F .text	00000048 printchar
00000000 g       .init	00000000 _sinit
000002ba g     F .text	00000010 buzzer_click
000013b4  w      .text	00000000 DMA1_Channel3_IRQHandler
000011b4 g     F .text	0000001e status(int)
000013b4  w      .text	00000000 TIM1_UP_IRQHandler
0000054a  w    F .text	00000032 uEeprom::get()
000013b4  w      .text	00000000 WWDG_IRQHandler
00001198 g     F .text	0000001c ScreenBoostPower
200000ac g     O .bss	00000004 pwm
000013b4  w      .text	00000000 TIM2_IRQHandler
20000800 g       .stack	00000000 _eusrstack
20000048 g     O .bss	00000008 millisec
000000ac g     F .text	0000000a .hidden __riscv_save_2
000013b4  w      .text	00000000 SW_Handler
000013b4  w      .text	00000000 TIM1_BRK_IRQHandler
00001b24 g     F .text	00000008 USART_SendData
2000009c g     O .bss	00000010 eeprom_power
00001c7a g     F .text	00000050 _write
20000048 g       .data	00000000 _edata
200000c4 g       .bss	00000000 _end
2000007c g     O .bss	00000010 eeprom_boostPower
2000000c g       .highcode	00000000 _highcode_vma_end
000018fa g     F .text	0000004e TIM_TimeBaseInit
000032f8 g       .dlalign	00000000 _data_lma
00001348 g     F .text	0000006c SystemCoreClockUpdate
0000033a g     F .text	00000024 buzzer_shutdown
00000130 g     F .text	00000024 .hidden __modsi3
000013b4  w      .text	00000000 DMA1_Channel2_IRQHandler
000002e4 g     F .text	0000000e buzzer_ios_click
000013b6  w      .text	00000000 handle_reset
000013b4  w      .text	00000000 FLASH_IRQHandler
000000ac g     F .text	0000000a .hidden __riscv_save_0
000013b4  w      .text	00000000 USART1_IRQHandler
2000000c g     O .data	00000002 configCurrentPower
000013b4  w      .text	00000000 I2C1_ER_IRQHandler
00000fe2 g     F .text	00000132 ScreenPower
00001710 g     F .text	00000006 NVIC_PriorityGroupConfig
000000b6 g     F .text	0000000a .hidden __riscv_restore_1
00001616 g     F .text	0000000a GPIO_ReadInputDataBit
000014f8 g     F .text	00000018 FLASH_GetBank1Status
0000035e g     F .text	00000040 beep_Increment_Max



Disassembly of section .init:

00000000 <_sinit>:
   0:	3b60106f          	j	13b6 <handle_reset>
   4:	0000                	unimp
   6:	0000                	unimp
   8:	0400                	addi	s0,sp,512
   a:	0000                	unimp
   c:	0412                	slli	s0,s0,0x4
	...
  2e:	0000                	unimp
  30:	0432                	slli	s0,s0,0xc
  32:	0000                	unimp
  34:	0000                	unimp
  36:	0000                	unimp
  38:	13b4                	addi	a3,sp,488
  3a:	0000                	unimp
  3c:	0000                	unimp
  3e:	0000                	unimp
  40:	13b4                	addi	a3,sp,488
  42:	0000                	unimp
  44:	13b4                	addi	a3,sp,488
  46:	0000                	unimp
  48:	13b4                	addi	a3,sp,488
  4a:	0000                	unimp
  4c:	13b4                	addi	a3,sp,488
  4e:	0000                	unimp
  50:	13b4                	addi	a3,sp,488
  52:	0000                	unimp
  54:	13b4                	addi	a3,sp,488
  56:	0000                	unimp
  58:	13b4                	addi	a3,sp,488
  5a:	0000                	unimp
  5c:	13b4                	addi	a3,sp,488
  5e:	0000                	unimp
  60:	13b4                	addi	a3,sp,488
  62:	0000                	unimp
  64:	13b4                	addi	a3,sp,488
  66:	0000                	unimp
  68:	13b4                	addi	a3,sp,488
  6a:	0000                	unimp
  6c:	13b4                	addi	a3,sp,488
  6e:	0000                	unimp
  70:	13b4                	addi	a3,sp,488
  72:	0000                	unimp
  74:	13b4                	addi	a3,sp,488
  76:	0000                	unimp
  78:	13b4                	addi	a3,sp,488
  7a:	0000                	unimp
  7c:	13b4                	addi	a3,sp,488
  7e:	0000                	unimp
  80:	13b4                	addi	a3,sp,488
  82:	0000                	unimp
  84:	13b4                	addi	a3,sp,488
  86:	0000                	unimp
  88:	13b4                	addi	a3,sp,488
  8a:	0000                	unimp
  8c:	13b4                	addi	a3,sp,488
  8e:	0000                	unimp
  90:	13b4                	addi	a3,sp,488
  92:	0000                	unimp
  94:	13b4                	addi	a3,sp,488
  96:	0000                	unimp
  98:	13b4                	addi	a3,sp,488
  9a:	0000                	unimp
  9c:	0000                	unimp
	...

Disassembly of section .highcode:

20000000 <WFE>:
20000000:	10500073          	wfi
20000004:	157d                	addi	a0,a0,-1
20000006:	fd7d                	bnez	a0,20000004 <WFE+0x4>
20000008:	8082                	ret
	...

Disassembly of section .text:

000000ac <__riscv_save_0>:
      ac:	1151                	addi	sp,sp,-12
      ae:	c026                	sw	s1,0(sp)
      b0:	c222                	sw	s0,4(sp)
      b2:	c406                	sw	ra,8(sp)
      b4:	8282                	jr	t0

000000b6 <__riscv_restore_0>:
      b6:	4482                	lw	s1,0(sp)
      b8:	4412                	lw	s0,4(sp)
      ba:	40a2                	lw	ra,8(sp)
      bc:	0131                	addi	sp,sp,12
      be:	8082                	ret

000000c0 <__mulsi3>:
      c0:	862a                	mv	a2,a0
      c2:	4501                	li	a0,0
      c4:	0015f693          	andi	a3,a1,1
      c8:	c291                	beqz	a3,cc <__mulsi3+0xc>
      ca:	9532                	add	a0,a0,a2
      cc:	8185                	srli	a1,a1,0x1
      ce:	0606                	slli	a2,a2,0x1
      d0:	f9f5                	bnez	a1,c4 <__mulsi3+0x4>
      d2:	8082                	ret
      d4:	0000                	unimp
	...

000000d8 <__divsi3>:
      d8:	02054e63          	bltz	a0,114 <__umodsi3+0x8>
      dc:	0405c363          	bltz	a1,122 <__umodsi3+0x16>

000000e0 <__udivsi3>:
      e0:	862e                	mv	a2,a1
      e2:	85aa                	mv	a1,a0
      e4:	557d                	li	a0,-1
      e6:	c215                	beqz	a2,10a <__stack_size+0xa>
      e8:	4685                	li	a3,1
      ea:	00b67863          	bgeu	a2,a1,fa <__udivsi3+0x1a>
      ee:	00c05663          	blez	a2,fa <__udivsi3+0x1a>
      f2:	0606                	slli	a2,a2,0x1
      f4:	0686                	slli	a3,a3,0x1
      f6:	feb66ce3          	bltu	a2,a1,ee <__udivsi3+0xe>
      fa:	4501                	li	a0,0
      fc:	00c5e463          	bltu	a1,a2,104 <__stack_size+0x4>
     100:	8d91                	sub	a1,a1,a2
     102:	8d55                	or	a0,a0,a3
     104:	8285                	srli	a3,a3,0x1
     106:	8205                	srli	a2,a2,0x1
     108:	faf5                	bnez	a3,fc <__udivsi3+0x1c>
     10a:	8082                	ret

0000010c <__umodsi3>:
     10c:	8286                	mv	t0,ra
     10e:	3fc9                	jal	e0 <__udivsi3>
     110:	852e                	mv	a0,a1
     112:	8282                	jr	t0
     114:	40a00533          	neg	a0,a0
     118:	0005d763          	bgez	a1,126 <__umodsi3+0x1a>
     11c:	40b005b3          	neg	a1,a1
     120:	b7c1                	j	e0 <__udivsi3>
     122:	40b005b3          	neg	a1,a1
     126:	8286                	mv	t0,ra
     128:	3f65                	jal	e0 <__udivsi3>
     12a:	40a00533          	neg	a0,a0
     12e:	8282                	jr	t0

00000130 <__modsi3>:
     130:	8286                	mv	t0,ra
     132:	0005c763          	bltz	a1,140 <__modsi3+0x10>
     136:	00054963          	bltz	a0,148 <__modsi3+0x18>
     13a:	375d                	jal	e0 <__udivsi3>
     13c:	852e                	mv	a0,a1
     13e:	8282                	jr	t0
     140:	40b005b3          	neg	a1,a1
     144:	fe055be3          	bgez	a0,13a <__modsi3+0xa>
     148:	40a00533          	neg	a0,a0
     14c:	3f51                	jal	e0 <__udivsi3>
     14e:	40b00533          	neg	a0,a1
     152:	8282                	jr	t0
	...

00000156 <tone1.part.0>:
     156:	f57ff2ef          	jal	t0,ac <__riscv_save_0>
     15a:	842a                	mv	s0,a0
     15c:	4601                	li	a2,0
     15e:	4589                	li	a1,2
     160:	40011537          	lui	a0,0x40011
     164:	4bc010ef          	jal	ra,1620 <GPIO_WriteBit>
     168:	8522                	mv	a0,s0
     16a:	1cd010ef          	jal	ra,1b36 <delay>
     16e:	b7a1                	j	b6 <__riscv_restore_0>

00000170 <delayUsTone>:
     170:	e000f7b7          	lui	a5,0xe000f
     174:	43d8                	lw	a4,4(a5)
     176:	9b79                	andi	a4,a4,-2
     178:	c3d8                	sw	a4,4(a5)
     17a:	00989737          	lui	a4,0x989
     17e:	67f70713          	addi	a4,a4,1663 # 98967f <_data_lma+0x986387>
     182:	cb98                	sw	a4,16(a5)
     184:	0007a423          	sw	zero,8(a5) # e000f008 <__global_pointer$+0xc000e7c0>
     188:	4798                	lw	a4,8(a5)
     18a:	fee57fe3          	bgeu	a0,a4,188 <delayUsTone+0x18>
     18e:	0007a423          	sw	zero,8(a5)
     192:	3e700713          	li	a4,999
     196:	cb98                	sw	a4,16(a5)
     198:	8082                	ret

0000019a <tone1>:
     19a:	f13ff2ef          	jal	t0,ac <__riscv_save_0>
     19e:	1171                	addi	sp,sp,-4
     1a0:	84ae                	mv	s1,a1
     1a2:	e509                	bnez	a0,1ac <tone1+0x12>
     1a4:	852e                	mv	a0,a1
     1a6:	3f45                	jal	156 <tone1.part.0>
     1a8:	0111                	addi	sp,sp,4
     1aa:	b731                	j	b6 <__riscv_restore_0>
     1ac:	85aa                	mv	a1,a0
     1ae:	000f4537          	lui	a0,0xf4
     1b2:	24050513          	addi	a0,a0,576 # f4240 <_data_lma+0xf0f48>
     1b6:	372d                	jal	e0 <__udivsi3>
     1b8:	00549793          	slli	a5,s1,0x5
     1bc:	8f85                	sub	a5,a5,s1
     1be:	078a                	slli	a5,a5,0x2
     1c0:	97a6                	add	a5,a5,s1
     1c2:	85aa                	mv	a1,a0
     1c4:	00155413          	srli	s0,a0,0x1
     1c8:	00379513          	slli	a0,a5,0x3
     1cc:	3f11                	jal	e0 <__udivsi3>
     1ce:	87aa                	mv	a5,a0
     1d0:	4481                	li	s1,0
     1d2:	fcf48be3          	beq	s1,a5,1a8 <tone1+0xe>
     1d6:	4605                	li	a2,1
     1d8:	4589                	li	a1,2
     1da:	40011537          	lui	a0,0x40011
     1de:	c03e                	sw	a5,0(sp)
     1e0:	440010ef          	jal	ra,1620 <GPIO_WriteBit>
     1e4:	8522                	mv	a0,s0
     1e6:	3769                	jal	170 <delayUsTone>
     1e8:	4601                	li	a2,0
     1ea:	4589                	li	a1,2
     1ec:	40011537          	lui	a0,0x40011
     1f0:	430010ef          	jal	ra,1620 <GPIO_WriteBit>
     1f4:	8522                	mv	a0,s0
     1f6:	3fad                	jal	170 <delayUsTone>
     1f8:	0485                	addi	s1,s1,1
     1fa:	4782                	lw	a5,0(sp)
     1fc:	bfd9                	j	1d2 <tone1+0x38>

000001fe <tone1_vol>:
     1fe:	eafff2ef          	jal	t0,ac <__riscv_save_0>
     202:	1151                	addi	sp,sp,-12
     204:	842e                	mv	s0,a1
     206:	c111                	beqz	a0,20a <tone1_vol+0xc>
     208:	e609                	bnez	a2,212 <tone1_vol+0x14>
     20a:	8522                	mv	a0,s0
     20c:	37a9                	jal	156 <tone1.part.0>
     20e:	0131                	addi	sp,sp,12
     210:	b55d                	j	b6 <__riscv_restore_0>
     212:	85aa                	mv	a1,a0
     214:	000f4537          	lui	a0,0xf4
     218:	24050513          	addi	a0,a0,576 # f4240 <_data_lma+0xf0f48>
     21c:	c232                	sw	a2,4(sp)
     21e:	35c9                	jal	e0 <__udivsi3>
     220:	00541793          	slli	a5,s0,0x5
     224:	8f81                	sub	a5,a5,s0
     226:	078a                	slli	a5,a5,0x2
     228:	97a2                	add	a5,a5,s0
     22a:	85aa                	mv	a1,a0
     22c:	00155493          	srli	s1,a0,0x1
     230:	00379513          	slli	a0,a5,0x3
     234:	3575                	jal	e0 <__udivsi3>
     236:	4612                	lw	a2,4(sp)
     238:	c02a                	sw	a0,0(sp)
     23a:	06400793          	li	a5,100
     23e:	0ff67513          	andi	a0,a2,255
     242:	00c7f463          	bgeu	a5,a2,24a <tone1_vol+0x4c>
     246:	06400513          	li	a0,100
     24a:	85a6                	mv	a1,s1
     24c:	3d95                	jal	c0 <__mulsi3>
     24e:	06400593          	li	a1,100
     252:	3579                	jal	e0 <__udivsi3>
     254:	40a487b3          	sub	a5,s1,a0
     258:	c23e                	sw	a5,4(sp)
     25a:	842a                	mv	s0,a0
     25c:	4781                	li	a5,0
     25e:	4702                	lw	a4,0(sp)
     260:	fae787e3          	beq	a5,a4,20e <tone1_vol+0x10>
     264:	4605                	li	a2,1
     266:	4589                	li	a1,2
     268:	40011537          	lui	a0,0x40011
     26c:	c43e                	sw	a5,8(sp)
     26e:	3b2010ef          	jal	ra,1620 <GPIO_WriteBit>
     272:	8522                	mv	a0,s0
     274:	3df5                	jal	170 <delayUsTone>
     276:	4601                	li	a2,0
     278:	4589                	li	a1,2
     27a:	40011537          	lui	a0,0x40011
     27e:	3a2010ef          	jal	ra,1620 <GPIO_WriteBit>
     282:	4512                	lw	a0,4(sp)
     284:	35f5                	jal	170 <delayUsTone>
     286:	8526                	mv	a0,s1
     288:	35e5                	jal	170 <delayUsTone>
     28a:	47a2                	lw	a5,8(sp)
     28c:	0785                	addi	a5,a5,1
     28e:	bfc1                	j	25e <tone1_vol+0x60>

00000290 <buzzer_ok>:
     290:	e1dff2ef          	jal	t0,ac <__riscv_save_0>
     294:	05000593          	li	a1,80
     298:	3e800513          	li	a0,1000
     29c:	3dfd                	jal	19a <tone1>
     29e:	05000593          	li	a1,80
     2a2:	5dc00513          	li	a0,1500
     2a6:	3dd5                	jal	19a <tone1>
     2a8:	b539                	j	b6 <__riscv_restore_0>

000002aa <buzzer_warning>:
     2aa:	e03ff2ef          	jal	t0,ac <__riscv_save_0>
     2ae:	09600593          	li	a1,150
     2b2:	32000513          	li	a0,800
     2b6:	35d5                	jal	19a <tone1>
     2b8:	bbfd                	j	b6 <__riscv_restore_0>

000002ba <buzzer_click>:
     2ba:	df3ff2ef          	jal	t0,ac <__riscv_save_0>
     2be:	02800593          	li	a1,40
     2c2:	4b000513          	li	a0,1200
     2c6:	3dd1                	jal	19a <tone1>
     2c8:	b3fd                	j	b6 <__riscv_restore_0>

000002ca <buzzer_beepboop>:
     2ca:	de3ff2ef          	jal	t0,ac <__riscv_save_0>
     2ce:	03c00593          	li	a1,60
     2d2:	3e800513          	li	a0,1000
     2d6:	35d1                	jal	19a <tone1>
     2d8:	03c00593          	li	a1,60
     2dc:	2bc00513          	li	a0,700
     2e0:	3d6d                	jal	19a <tone1>
     2e2:	bbd1                	j	b6 <__riscv_restore_0>

000002e4 <buzzer_ios_click>:
     2e4:	dc9ff2ef          	jal	t0,ac <__riscv_save_0>
     2e8:	45e5                	li	a1,25
     2ea:	70800513          	li	a0,1800
     2ee:	3575                	jal	19a <tone1>
     2f0:	b3d9                	j	b6 <__riscv_restore_0>

000002f2 <buzzer_robot>:
     2f2:	dbbff2ef          	jal	t0,ac <__riscv_save_0>
     2f6:	04600593          	li	a1,70
     2fa:	32000513          	li	a0,800
     2fe:	3d71                	jal	19a <tone1>
     300:	04600593          	li	a1,70
     304:	3e800513          	li	a0,1000
     308:	3d49                	jal	19a <tone1>
     30a:	05a00593          	li	a1,90
     30e:	25800513          	li	a0,600
     312:	3561                	jal	19a <tone1>
     314:	b34d                	j	b6 <__riscv_restore_0>

00000316 <buzzer_startup>:
     316:	d97ff2ef          	jal	t0,ac <__riscv_save_0>
     31a:	07800593          	li	a1,120
     31e:	32000513          	li	a0,800
     322:	3da5                	jal	19a <tone1>
     324:	07800593          	li	a1,120
     328:	3e800513          	li	a0,1000
     32c:	35bd                	jal	19a <tone1>
     32e:	0a000593          	li	a1,160
     332:	51400513          	li	a0,1300
     336:	3595                	jal	19a <tone1>
     338:	bbbd                	j	b6 <__riscv_restore_0>

0000033a <buzzer_shutdown>:
     33a:	d73ff2ef          	jal	t0,ac <__riscv_save_0>
     33e:	09600593          	li	a1,150
     342:	4b000513          	li	a0,1200
     346:	3d91                	jal	19a <tone1>
     348:	09600593          	li	a1,150
     34c:	38400513          	li	a0,900
     350:	35a9                	jal	19a <tone1>
     352:	0b400593          	li	a1,180
     356:	25800513          	li	a0,600
     35a:	3581                	jal	19a <tone1>
     35c:	bba9                	j	b6 <__riscv_restore_0>

0000035e <beep_Increment_Max>:
     35e:	d4fff2ef          	jal	t0,ac <__riscv_save_0>
     362:	05a00613          	li	a2,90
     366:	05000593          	li	a1,80
     36a:	5dc00513          	li	a0,1500
     36e:	3d41                	jal	1fe <tone1_vol>
     370:	02800513          	li	a0,40
     374:	7c2010ef          	jal	ra,1b36 <delay>
     378:	05a00613          	li	a2,90
     37c:	05000593          	li	a1,80
     380:	5dc00513          	li	a0,1500
     384:	3dad                	jal	1fe <tone1_vol>
     386:	02800513          	li	a0,40
     38a:	7ac010ef          	jal	ra,1b36 <delay>
     38e:	04600613          	li	a2,70
     392:	06400593          	li	a1,100
     396:	4b000513          	li	a0,1200
     39a:	3595                	jal	1fe <tone1_vol>
     39c:	bb29                	j	b6 <__riscv_restore_0>

0000039e <beep_Decrement_Min>:
     39e:	d0fff2ef          	jal	t0,ac <__riscv_save_0>
     3a2:	05a00613          	li	a2,90
     3a6:	05000593          	li	a1,80
     3aa:	32000513          	li	a0,800
     3ae:	3d81                	jal	1fe <tone1_vol>
     3b0:	02800513          	li	a0,40
     3b4:	782010ef          	jal	ra,1b36 <delay>
     3b8:	05a00613          	li	a2,90
     3bc:	05000593          	li	a1,80
     3c0:	32000513          	li	a0,800
     3c4:	3d2d                	jal	1fe <tone1_vol>
     3c6:	02800513          	li	a0,40
     3ca:	76c010ef          	jal	ra,1b36 <delay>
     3ce:	04600613          	li	a2,70
     3d2:	06400593          	li	a1,100
     3d6:	3e800513          	li	a0,1000
     3da:	3515                	jal	1fe <tone1_vol>
     3dc:	b9e9                	j	b6 <__riscv_restore_0>

000003de <beep_Save>:
     3de:	ccfff2ef          	jal	t0,ac <__riscv_save_0>
     3e2:	04600613          	li	a2,70
     3e6:	02800593          	li	a1,40
     3ea:	3e800513          	li	a0,1000
     3ee:	3d01                	jal	1fe <tone1_vol>
     3f0:	06400613          	li	a2,100
     3f4:	05000593          	li	a1,80
     3f8:	5dc00513          	li	a0,1500
     3fc:	3509                	jal	1fe <tone1_vol>
     3fe:	b965                	j	b6 <__riscv_restore_0>

00000400 <NMI_Handler>:
     400:	1171                	addi	sp,sp,-4
     402:	c022                	sw	s0,0(sp)
     404:	00002437          	lui	s0,0x2
     408:	2fc40513          	addi	a0,s0,764 # 22fc <puts+0x60>
     40c:	691010ef          	jal	ra,229c <puts>
     410:	bfe5                	j	408 <NMI_Handler+0x8>

00000412 <HardFault_Handler>:
     412:	1171                	addi	sp,sp,-4
     414:	beef07b7          	lui	a5,0xbeef0
     418:	c022                	sw	s0,0(sp)
     41a:	e000e737          	lui	a4,0xe000e
     41e:	08078793          	addi	a5,a5,128 # beef0080 <__global_pointer$+0x9eeef838>
     422:	c73c                	sw	a5,72(a4)
     424:	00002437          	lui	s0,0x2
     428:	2e840513          	addi	a0,s0,744 # 22e8 <puts+0x4c>
     42c:	671010ef          	jal	ra,229c <puts>
     430:	bfe5                	j	428 <HardFault_Handler+0x16>

00000432 <SysTick_Handler>:
     432:	200007b7          	lui	a5,0x20000
     436:	04878793          	addi	a5,a5,72 # 20000048 <_edata>
     43a:	4398                	lw	a4,0(a5)
     43c:	43d0                	lw	a2,4(a5)
     43e:	00170693          	addi	a3,a4,1 # e000e001 <__global_pointer$+0xc000d7b9>
     442:	00e6b733          	sltu	a4,a3,a4
     446:	9732                	add	a4,a4,a2
     448:	c3d8                	sw	a4,4(a5)
     44a:	c394                	sw	a3,0(a5)
     44c:	e000f7b7          	lui	a5,0xe000f
     450:	0007a223          	sw	zero,4(a5) # e000f004 <__global_pointer$+0xc000e7bc>
     454:	30200073          	mret

00000458 <init>:
     458:	c55ff2ef          	jal	t0,ac <__riscv_save_0>
     45c:	1151                	addi	sp,sp,-12
     45e:	4505                	li	a0,1
     460:	c002                	sw	zero,0(sp)
     462:	c202                	sw	zero,4(sp)
     464:	c402                	sw	zero,8(sp)
     466:	2aa010ef          	jal	ra,1710 <NVIC_PriorityGroupConfig>
     46a:	6df000ef          	jal	ra,1348 <SystemCoreClockUpdate>
     46e:	73a010ef          	jal	ra,1ba8 <Delay_Init>
     472:	6505                	lui	a0,0x1
     474:	9c450513          	addi	a0,a0,-1596 # 9c4 <main+0xf4>
     478:	764010ef          	jal	ra,1bdc <Delay_Ms>
     47c:	4585                	li	a1,1
     47e:	03400513          	li	a0,52
     482:	43c010ef          	jal	ra,18be <RCC_APB2PeriphClockCmd>
     486:	4585                	li	a1,1
     488:	10000537          	lui	a0,0x10000
     48c:	450010ef          	jal	ra,18dc <RCC_APB1PeriphClockCmd>
     490:	40011537          	lui	a0,0x40011
     494:	57fd                	li	a5,-1
     496:	858a                	mv	a1,sp
     498:	80050513          	addi	a0,a0,-2048 # 40010800 <__global_pointer$+0x2000ffb8>
     49c:	807c                	sh	a5,0(sp)
     49e:	c402                	sw	zero,8(sp)
     4a0:	0fa010ef          	jal	ra,159a <GPIO_Init>
     4a4:	4405                	li	s0,1
     4a6:	44c1                	li	s1,16
     4a8:	4791                	li	a5,4
     4aa:	858a                	mv	a1,sp
     4ac:	40011537          	lui	a0,0x40011
     4b0:	807c                	sh	a5,0(sp)
     4b2:	c426                	sw	s1,8(sp)
     4b4:	c222                	sw	s0,4(sp)
     4b6:	0e4010ef          	jal	ra,159a <GPIO_Init>
     4ba:	4789                	li	a5,2
     4bc:	858a                	mv	a1,sp
     4be:	40011537          	lui	a0,0x40011
     4c2:	807c                	sh	a5,0(sp)
     4c4:	c426                	sw	s1,8(sp)
     4c6:	c222                	sw	s0,4(sp)
     4c8:	0d2010ef          	jal	ra,159a <GPIO_Init>
     4cc:	04800793          	li	a5,72
     4d0:	858a                	mv	a1,sp
     4d2:	40011537          	lui	a0,0x40011
     4d6:	c43e                	sw	a5,8(sp)
     4d8:	8064                	sh	s1,0(sp)
     4da:	c222                	sw	s0,4(sp)
     4dc:	0be010ef          	jal	ra,159a <GPIO_Init>
     4e0:	4605                	li	a2,1
     4e2:	4591                	li	a1,4
     4e4:	40011537          	lui	a0,0x40011
     4e8:	138010ef          	jal	ra,1620 <GPIO_WriteBit>
     4ec:	4515                	li	a0,5
     4ee:	6ee010ef          	jal	ra,1bdc <Delay_Ms>
     4f2:	4601                	li	a2,0
     4f4:	4591                	li	a1,4
     4f6:	40011537          	lui	a0,0x40011
     4fa:	126010ef          	jal	ra,1620 <GPIO_WriteBit>
     4fe:	0131                	addi	sp,sp,12
     500:	be5d                	j	b6 <__riscv_restore_0>

00000502 <Pwm::disable() [clone .isra.4]>:
     502:	babff2ef          	jal	t0,ac <__riscv_save_0>
     506:	40013437          	lui	s0,0x40013
     50a:	1151                	addi	sp,sp,-12
     50c:	c0040513          	addi	a0,s0,-1024 # 40012c00 <__global_pointer$+0x200123b8>
     510:	4581                	li	a1,0
     512:	4e4010ef          	jal	ra,19f6 <TIM_CtrlPWMOutputs>
     516:	c0040513          	addi	a0,s0,-1024
     51a:	4581                	li	a1,0
     51c:	4c2010ef          	jal	ra,19de <TIM_Cmd>
     520:	4791                	li	a5,4
     522:	40011437          	lui	s0,0x40011
     526:	807c                	sh	a5,0(sp)
     528:	47c1                	li	a5,16
     52a:	c43e                	sw	a5,8(sp)
     52c:	858a                	mv	a1,sp
     52e:	4785                	li	a5,1
     530:	80040513          	addi	a0,s0,-2048 # 40010800 <__global_pointer$+0x2000ffb8>
     534:	c23e                	sw	a5,4(sp)
     536:	064010ef          	jal	ra,159a <GPIO_Init>
     53a:	4601                	li	a2,0
     53c:	4591                	li	a1,4
     53e:	80040513          	addi	a0,s0,-2048
     542:	0de010ef          	jal	ra,1620 <GPIO_WriteBit>
     546:	0131                	addi	sp,sp,12
     548:	b6bd                	j	b6 <__riscv_restore_0>

0000054a <uEeprom::get()>:
     54a:	b63ff2ef          	jal	t0,ac <__riscv_save_0>
     54e:	255c                	lbu	a5,12(a0)
     550:	eb89                	bnez	a5,562 <uEeprom::get()+0x18>
     552:	00002537          	lui	a0,0x2
     556:	3d050513          	addi	a0,a0,976 # 23d0 <puts+0x134>
     55a:	543010ef          	jal	ra,229c <puts>
     55e:	4501                	li	a0,0
     560:	be99                	j	b6 <__riscv_restore_0>
     562:	00e51683          	lh	a3,14(a0)
     566:	2112                	lhu	a2,0(a0)
     568:	450c                	lw	a1,8(a0)
     56a:	842a                	mv	s0,a0
     56c:	00002537          	lui	a0,0x2
     570:	42c50513          	addi	a0,a0,1068 # 242c <puts+0x190>
     574:	505010ef          	jal	ra,2278 <printf>
     578:	246a                	lhu	a0,14(s0)
     57a:	b7dd                	j	560 <uEeprom::get()+0x16>

0000057c <uEeprom::init(unsigned short, unsigned short, unsigned short, unsigned short, char const*)>:
     57c:	b31ff2ef          	jal	t0,ac <__riscv_save_0>
     580:	a17a                	sh	a4,6(a0)
     582:	08004737          	lui	a4,0x8004
     586:	a156                	sh	a3,4(a0)
     588:	a132                	sh	a2,2(a0)
     58a:	842a                	mv	s0,a0
     58c:	00659493          	slli	s1,a1,0x6
     590:	a10e                	sh	a1,0(a0)
     592:	c51c                	sw	a5,8(a0)
     594:	c0070793          	addi	a5,a4,-1024 # 8003c00 <_data_lma+0x8000908>
     598:	00002537          	lui	a0,0x2
     59c:	1151                	addi	sp,sp,-12
     59e:	97a6                	add	a5,a5,s1
     5a0:	4bc50513          	addi	a0,a0,1212 # 24bc <puts+0x220>
     5a4:	c03e                	sw	a5,0(sp)
     5a6:	4f7010ef          	jal	ra,229c <puts>
     5aa:	440c                	lw	a1,8(s0)
     5ac:	00002537          	lui	a0,0x2
     5b0:	59c50513          	addi	a0,a0,1436 # 259c <puts+0x300>
     5b4:	4c5010ef          	jal	ra,2278 <printf>
     5b8:	00002537          	lui	a0,0x2
     5bc:	60450513          	addi	a0,a0,1540 # 2604 <puts+0x368>
     5c0:	4dd010ef          	jal	ra,229c <puts>
     5c4:	200e                	lhu	a1,0(s0)
     5c6:	00002537          	lui	a0,0x2
     5ca:	6e450513          	addi	a0,a0,1764 # 26e4 <puts+0x448>
     5ce:	4ab010ef          	jal	ra,2278 <printf>
     5d2:	4582                	lw	a1,0(sp)
     5d4:	00002537          	lui	a0,0x2
     5d8:	75850513          	addi	a0,a0,1880 # 2758 <puts+0x4bc>
     5dc:	49d010ef          	jal	ra,2278 <printf>
     5e0:	2052                	lhu	a2,4(s0)
     5e2:	202e                	lhu	a1,2(s0)
     5e4:	00002537          	lui	a0,0x2
     5e8:	7c450513          	addi	a0,a0,1988 # 27c4 <puts+0x528>
     5ec:	48d010ef          	jal	ra,2278 <printf>
     5f0:	206e                	lhu	a1,6(s0)
     5f2:	00003537          	lui	a0,0x3
     5f6:	82c50513          	addi	a0,a0,-2004 # 282c <puts+0x590>
     5fa:	47f010ef          	jal	ra,2278 <printf>
     5fe:	00003537          	lui	a0,0x3
     602:	89850513          	addi	a0,a0,-1896 # 2898 <puts+0x5fc>
     606:	497010ef          	jal	ra,229c <puts>
     60a:	4782                	lw	a5,0(sp)
     60c:	08004737          	lui	a4,0x8004
     610:	c0270713          	addi	a4,a4,-1022 # 8003c02 <_data_lma+0x800090a>
     614:	9726                	add	a4,a4,s1
     616:	239e                	lhu	a5,0(a5)
     618:	2306                	lhu	s1,0(a4)
     61a:	00003537          	lui	a0,0x3
     61e:	07c2                	slli	a5,a5,0x10
     620:	04c2                	slli	s1,s1,0x10
     622:	83c1                	srli	a5,a5,0x10
     624:	80c1                	srli	s1,s1,0x10
     626:	c23a                	sw	a4,4(sp)
     628:	863e                	mv	a2,a5
     62a:	85be                	mv	a1,a5
     62c:	8726                	mv	a4,s1
     62e:	86a6                	mv	a3,s1
     630:	97850513          	addi	a0,a0,-1672 # 2978 <puts+0x6dc>
     634:	c43e                	sw	a5,8(sp)
     636:	443010ef          	jal	ra,2278 <printf>
     63a:	47a2                	lw	a5,8(sp)
     63c:	00979663          	bne	a5,s1,648 <uEeprom::init(unsigned short, unsigned short, unsigned short, unsigned short, char const*)+0xcc>
     640:	6741                	lui	a4,0x10
     642:	177d                	addi	a4,a4,-1
     644:	0ee79d63          	bne	a5,a4,73e <uEeprom::init(unsigned short, unsigned short, unsigned short, unsigned short, char const*)+0x1c2>
     648:	00003537          	lui	a0,0x3
     64c:	a0050513          	addi	a0,a0,-1536 # 2a00 <puts+0x764>
     650:	c43e                	sw	a5,8(sp)
     652:	44b010ef          	jal	ra,229c <puts>
     656:	47a2                	lw	a5,8(sp)
     658:	00978b63          	beq	a5,s1,66e <uEeprom::init(unsigned short, unsigned short, unsigned short, unsigned short, char const*)+0xf2>
     65c:	00003537          	lui	a0,0x3
     660:	85be                	mv	a1,a5
     662:	8626                	mv	a2,s1
     664:	a7450513          	addi	a0,a0,-1420 # 2a74 <puts+0x7d8>
     668:	411010ef          	jal	ra,2278 <printf>
     66c:	47a2                	lw	a5,8(sp)
     66e:	6741                	lui	a4,0x10
     670:	177d                	addi	a4,a4,-1
     672:	00e79863          	bne	a5,a4,682 <uEeprom::init(unsigned short, unsigned short, unsigned short, unsigned short, char const*)+0x106>
     676:	00003537          	lui	a0,0x3
     67a:	b0850513          	addi	a0,a0,-1272 # 2b08 <puts+0x86c>
     67e:	41f010ef          	jal	ra,229c <puts>
     682:	67c1                	lui	a5,0x10
     684:	17fd                	addi	a5,a5,-1
     686:	00f49863          	bne	s1,a5,696 <uEeprom::init(unsigned short, unsigned short, unsigned short, unsigned short, char const*)+0x11a>
     68a:	00003537          	lui	a0,0x3
     68e:	b8450513          	addi	a0,a0,-1148 # 2b84 <puts+0x8e8>
     692:	40b010ef          	jal	ra,229c <puts>
     696:	206e                	lhu	a1,6(s0)
     698:	00003537          	lui	a0,0x3
     69c:	c0050513          	addi	a0,a0,-1024 # 2c00 <puts+0x964>
     6a0:	3d9010ef          	jal	ra,2278 <printf>
     6a4:	00003537          	lui	a0,0x3
     6a8:	c7850513          	addi	a0,a0,-904 # 2c78 <puts+0x9dc>
     6ac:	3f1010ef          	jal	ra,229c <puts>
     6b0:	621000ef          	jal	ra,14d0 <FLASH_Unlock>
     6b4:	00003537          	lui	a0,0x3
     6b8:	cb850513          	addi	a0,a0,-840 # 2cb8 <puts+0xa1c>
     6bc:	3e1010ef          	jal	ra,229c <puts>
     6c0:	4502                	lw	a0,0(sp)
     6c2:	6a3000ef          	jal	ra,1564 <FLASH_ErasePage_Fast>
     6c6:	00003537          	lui	a0,0x3
     6ca:	d0850513          	addi	a0,a0,-760 # 2d08 <puts+0xa6c>
     6ce:	3cf010ef          	jal	ra,229c <puts>
     6d2:	206e                	lhu	a1,6(s0)
     6d4:	4502                	lw	a0,0(sp)
     6d6:	65b000ef          	jal	ra,1530 <FLASH_ProgramHalfWord>
     6da:	84aa                	mv	s1,a0
     6dc:	206e                	lhu	a1,6(s0)
     6de:	4512                	lw	a0,4(sp)
     6e0:	651000ef          	jal	ra,1530 <FLASH_ProgramHalfWord>
     6e4:	4791                	li	a5,4
     6e6:	862a                	mv	a2,a0
     6e8:	00f49463          	bne	s1,a5,6f0 <uEeprom::init(unsigned short, unsigned short, unsigned short, unsigned short, char const*)+0x174>
     6ec:	00950963          	beq	a0,s1,6fe <uEeprom::init(unsigned short, unsigned short, unsigned short, unsigned short, char const*)+0x182>
     6f0:	00003537          	lui	a0,0x3
     6f4:	85a6                	mv	a1,s1
     6f6:	d6050513          	addi	a0,a0,-672 # 2d60 <puts+0xac4>
     6fa:	37f010ef          	jal	ra,2278 <printf>
     6fe:	00003537          	lui	a0,0x3
     702:	da850513          	addi	a0,a0,-600 # 2da8 <puts+0xb0c>
     706:	397010ef          	jal	ra,229c <puts>
     70a:	5e1000ef          	jal	ra,14ea <FLASH_Lock>
     70e:	4782                	lw	a5,0(sp)
     710:	00003537          	lui	a0,0x3
     714:	de450513          	addi	a0,a0,-540 # 2de4 <puts+0xb48>
     718:	238e                	lhu	a1,0(a5)
     71a:	4792                	lw	a5,4(sp)
     71c:	2392                	lhu	a2,0(a5)
     71e:	35b010ef          	jal	ra,2278 <printf>
     722:	00641583          	lh	a1,6(s0)
     726:	00003537          	lui	a0,0x3
     72a:	e4050513          	addi	a0,a0,-448 # 2e40 <puts+0xba4>
     72e:	a46e                	sh	a1,14(s0)
     730:	349010ef          	jal	ra,2278 <printf>
     734:	4785                	li	a5,1
     736:	a45c                	sb	a5,12(s0)
     738:	0131                	addi	sp,sp,12
     73a:	97dff06f          	j	b6 <__riscv_restore_0>
     73e:	01079593          	slli	a1,a5,0x10
     742:	85c1                	srai	a1,a1,0x10
     744:	00003537          	lui	a0,0x3
     748:	a46e                	sh	a1,14(s0)
     74a:	ec450513          	addi	a0,a0,-316 # 2ec4 <puts+0xc28>
     74e:	b7cd                	j	730 <uEeprom::init(unsigned short, unsigned short, unsigned short, unsigned short, char const*)+0x1b4>

00000750 <EXTI_INT_INIT()>:
     750:	95dff2ef          	jal	t0,ac <__riscv_save_0>
     754:	1141                	addi	sp,sp,-16
     756:	4585                	li	a1,1
     758:	4545                	li	a0,17
     75a:	c002                	sw	zero,0(sp)
     75c:	c202                	sw	zero,4(sp)
     75e:	c402                	sw	zero,8(sp)
     760:	c602                	sw	zero,12(sp)
     762:	15c010ef          	jal	ra,18be <RCC_APB2PeriphClockCmd>
     766:	4591                	li	a1,4
     768:	4509                	li	a0,2
     76a:	785000ef          	jal	ra,16ee <GPIO_EXTILineConfig>
     76e:	47c1                	li	a5,16
     770:	c03e                	sw	a5,0(sp)
     772:	4791                	li	a5,4
     774:	c23e                	sw	a5,4(sp)
     776:	47b1                	li	a5,12
     778:	c43e                	sw	a5,8(sp)
     77a:	850a                	mv	a0,sp
     77c:	4785                	li	a5,1
     77e:	c63e                	sw	a5,12(sp)
     780:	4e7000ef          	jal	ra,1466 <EXTI_Init>
     784:	0141                	addi	sp,sp,16
     786:	931ff06f          	j	b6 <__riscv_restore_0>

0000078a <userEEPROM()>:
     78a:	923ff2ef          	jal	t0,ac <__riscv_save_0>
     78e:	00002537          	lui	a0,0x2
     792:	34850513          	addi	a0,a0,840 # 2348 <puts+0xac>
     796:	307010ef          	jal	ra,229c <puts>
     79a:	000027b7          	lui	a5,0x2
     79e:	35c78793          	addi	a5,a5,860 # 235c <puts+0xc0>
     7a2:	03200713          	li	a4,50
     7a6:	06400693          	li	a3,100
     7aa:	4601                	li	a2,0
     7ac:	4581                	li	a1,0
     7ae:	85418513          	addi	a0,gp,-1964 # 2000009c <eeprom_power>
     7b2:	33e9                	jal	57c <uEeprom::init(unsigned short, unsigned short, unsigned short, unsigned short, char const*)>
     7b4:	00002537          	lui	a0,0x2
     7b8:	36450513          	addi	a0,a0,868 # 2364 <puts+0xc8>
     7bc:	2e1010ef          	jal	ra,229c <puts>
     7c0:	000027b7          	lui	a5,0x2
     7c4:	38078793          	addi	a5,a5,896 # 2380 <puts+0xe4>
     7c8:	4701                	li	a4,0
     7ca:	4685                	li	a3,1
     7cc:	4601                	li	a2,0
     7ce:	4585                	li	a1,1
     7d0:	82418513          	addi	a0,gp,-2012 # 2000006c <eeprom_boostEnable>
     7d4:	3365                	jal	57c <uEeprom::init(unsigned short, unsigned short, unsigned short, unsigned short, char const*)>
     7d6:	00002537          	lui	a0,0x2
     7da:	38c50513          	addi	a0,a0,908 # 238c <puts+0xf0>
     7de:	2bf010ef          	jal	ra,229c <puts>
     7e2:	000027b7          	lui	a5,0x2
     7e6:	3a878793          	addi	a5,a5,936 # 23a8 <puts+0x10c>
     7ea:	4729                	li	a4,10
     7ec:	06400693          	li	a3,100
     7f0:	4601                	li	a2,0
     7f2:	4589                	li	a1,2
     7f4:	83418513          	addi	a0,gp,-1996 # 2000007c <eeprom_boostPower>
     7f8:	3351                	jal	57c <uEeprom::init(unsigned short, unsigned short, unsigned short, unsigned short, char const*)>
     7fa:	00002537          	lui	a0,0x2
     7fe:	3b050513          	addi	a0,a0,944 # 23b0 <puts+0x114>
     802:	29b010ef          	jal	ra,229c <puts>
     806:	000027b7          	lui	a5,0x2
     80a:	3c878793          	addi	a5,a5,968 # 23c8 <puts+0x12c>
     80e:	06400713          	li	a4,100
     812:	06400693          	li	a3,100
     816:	4601                	li	a2,0
     818:	458d                	li	a1,3
     81a:	84418513          	addi	a0,gp,-1980 # 2000008c <eeprom_boostTime>
     81e:	3bb9                	jal	57c <uEeprom::init(unsigned short, unsigned short, unsigned short, unsigned short, char const*)>
     820:	897ff06f          	j	b6 <__riscv_restore_0>

00000824 <gotoDeepSleep>:
     824:	889ff2ef          	jal	t0,ac <__riscv_save_0>
     828:	1151                	addi	sp,sp,-12
     82a:	4585                	li	a1,1
     82c:	4505                	li	a0,1
     82e:	c002                	sw	zero,0(sp)
     830:	c202                	sw	zero,4(sp)
     832:	c402                	sw	zero,8(sp)
     834:	08a010ef          	jal	ra,18be <RCC_APB2PeriphClockCmd>
     838:	00300537          	lui	a0,0x300
     83c:	4585                	li	a1,1
     83e:	40050513          	addi	a0,a0,1024 # 300400 <_data_lma+0x2fd108>
     842:	5e9000ef          	jal	ra,162a <GPIO_PinRemapConfig>
     846:	40011437          	lui	s0,0x40011
     84a:	57fd                	li	a5,-1
     84c:	858a                	mv	a1,sp
     84e:	80040513          	addi	a0,s0,-2048 # 40010800 <__global_pointer$+0x2000ffb8>
     852:	807c                	sh	a5,0(sp)
     854:	c402                	sw	zero,8(sp)
     856:	545000ef          	jal	ra,159a <GPIO_Init>
     85a:	858a                	mv	a1,sp
     85c:	40040513          	addi	a0,s0,1024
     860:	53b000ef          	jal	ra,159a <GPIO_Init>
     864:	57bd                	li	a5,-17
     866:	858a                	mv	a1,sp
     868:	40011537          	lui	a0,0x40011
     86c:	807c                	sh	a5,0(sp)
     86e:	52d000ef          	jal	ra,159a <GPIO_Init>
     872:	00201537          	lui	a0,0x201
     876:	4581                	li	a1,0
     878:	80150513          	addi	a0,a0,-2047 # 200801 <_data_lma+0x1fd509>
     87c:	060010ef          	jal	ra,18dc <RCC_APB1PeriphClockCmd>
     880:	00003537          	lui	a0,0x3
     884:	f5450513          	addi	a0,a0,-172 # 2f54 <puts+0xcb8>
     888:	215010ef          	jal	ra,229c <puts>
     88c:	4505                	li	a0,1
     88e:	689000ef          	jal	ra,1716 <PWR_EnterSTANDBYMode>
     892:	00003537          	lui	a0,0x3
     896:	f6450513          	addi	a0,a0,-156 # 2f64 <puts+0xcc8>
     89a:	203010ef          	jal	ra,229c <puts>
     89e:	47c1                	li	a5,16
     8a0:	c43e                	sw	a5,8(sp)
     8a2:	4485                	li	s1,1
     8a4:	4799                	li	a5,6
     8a6:	858a                	mv	a1,sp
     8a8:	40011537          	lui	a0,0x40011
     8ac:	807c                	sh	a5,0(sp)
     8ae:	c226                	sw	s1,4(sp)
     8b0:	4eb000ef          	jal	ra,159a <GPIO_Init>
     8b4:	47e1                	li	a5,24
     8b6:	c43e                	sw	a5,8(sp)
     8b8:	858a                	mv	a1,sp
     8ba:	04000793          	li	a5,64
     8be:	40040513          	addi	a0,s0,1024
     8c2:	807c                	sh	a5,0(sp)
     8c4:	c226                	sw	s1,4(sp)
     8c6:	4d5000ef          	jal	ra,159a <GPIO_Init>
     8ca:	0131                	addi	sp,sp,12
     8cc:	feaff06f          	j	b6 <__riscv_restore_0>

000008d0 <main>:
     8d0:	fdcff2ef          	jal	t0,ac <__riscv_save_0>
     8d4:	fd410113          	addi	sp,sp,-44
     8d8:	3641                	jal	458 <init>
     8da:	3d9d                	jal	750 <EXTI_INT_INIT()>
     8dc:	00071537          	lui	a0,0x71
     8e0:	80050513          	addi	a0,a0,-2048 # 70800 <_data_lma+0x6d508>
     8e4:	332010ef          	jal	ra,1c16 <USART_Printf_Init>
     8e8:	00003537          	lui	a0,0x3
     8ec:	f7c50513          	addi	a0,a0,-132 # 2f7c <puts+0xce0>
     8f0:	1ad010ef          	jal	ra,229c <puts>
     8f4:	200007b7          	lui	a5,0x20000
     8f8:	0207a583          	lw	a1,32(a5) # 20000020 <SystemCoreClock>
     8fc:	00003537          	lui	a0,0x3
     900:	fa850513          	addi	a0,a0,-88 # 2fa8 <puts+0xd0c>
     904:	175010ef          	jal	ra,2278 <printf>
     908:	3549                	jal	78a <userEEPROM()>
     90a:	00003437          	lui	s0,0x3
     90e:	f8c40513          	addi	a0,s0,-116 # 2f8c <puts+0xcf0>
     912:	18b010ef          	jal	ra,229c <puts>
     916:	85418513          	addi	a0,gp,-1964 # 2000009c <eeprom_power>
     91a:	3905                	jal	54a <uEeprom::get()>
     91c:	85aa                	mv	a1,a0
     91e:	00003537          	lui	a0,0x3
     922:	fc450513          	addi	a0,a0,-60 # 2fc4 <puts+0xd28>
     926:	153010ef          	jal	ra,2278 <printf>
     92a:	82418513          	addi	a0,gp,-2012 # 2000006c <eeprom_boostEnable>
     92e:	3931                	jal	54a <uEeprom::get()>
     930:	85aa                	mv	a1,a0
     932:	00003537          	lui	a0,0x3
     936:	fe050513          	addi	a0,a0,-32 # 2fe0 <puts+0xd44>
     93a:	13f010ef          	jal	ra,2278 <printf>
     93e:	83418513          	addi	a0,gp,-1996 # 2000007c <eeprom_boostPower>
     942:	3121                	jal	54a <uEeprom::get()>
     944:	85aa                	mv	a1,a0
     946:	00003537          	lui	a0,0x3
     94a:	ffc50513          	addi	a0,a0,-4 # 2ffc <puts+0xd60>
     94e:	12b010ef          	jal	ra,2278 <printf>
     952:	84418513          	addi	a0,gp,-1980 # 2000008c <eeprom_boostTime>
     956:	3ed5                	jal	54a <uEeprom::get()>
     958:	85aa                	mv	a1,a0
     95a:	00003537          	lui	a0,0x3
     95e:	01c50513          	addi	a0,a0,28 # 301c <puts+0xd80>
     962:	117010ef          	jal	ra,2278 <printf>
     966:	f8c40513          	addi	a0,s0,-116
     96a:	133010ef          	jal	ra,229c <puts>
     96e:	6505                	lui	a0,0x1
     970:	e000e7b7          	lui	a5,0xe000e
     974:	10a7a023          	sw	a0,256(a5) # e000e100 <__global_pointer$+0xc000d8b8>
     978:	e000f7b7          	lui	a5,0xe000f
     97c:	43d8                	lw	a4,4(a5)
     97e:	86418493          	addi	s1,gp,-1948 # 200000ac <pwm>
     982:	9b79                	andi	a4,a4,-2
     984:	c3d8                	sw	a4,4(a5)
     986:	3e700713          	li	a4,999
     98a:	cb98                	sw	a4,16(a5)
     98c:	0007a423          	sw	zero,8(a5) # e000f008 <__global_pointer$+0xc000e7c0>
     990:	472d                	li	a4,11
     992:	c398                	sw	a4,0(a5)
     994:	06400793          	li	a5,100
     998:	c09c                	sw	a5,0(s1)
     99a:	4585                	li	a1,1
     99c:	80550513          	addi	a0,a0,-2043 # 805 <userEEPROM()+0x7b>
     9a0:	c802                	sw	zero,16(sp)
     9a2:	ca02                	sw	zero,20(sp)
     9a4:	cc02                	sw	zero,24(sp)
     9a6:	c202                	sw	zero,4(sp)
     9a8:	c402                	sw	zero,8(sp)
     9aa:	00011623          	sh	zero,12(sp)
     9ae:	ce02                	sw	zero,28(sp)
     9b0:	d002                	sw	zero,32(sp)
     9b2:	d202                	sw	zero,36(sp)
     9b4:	d402                	sw	zero,40(sp)
     9b6:	709000ef          	jal	ra,18be <RCC_APB2PeriphClockCmd>
     9ba:	47e1                	li	a5,24
     9bc:	40011537          	lui	a0,0x40011
     9c0:	4711                	li	a4,4
     9c2:	cc3e                	sw	a5,24(sp)
     9c4:	080c                	addi	a1,sp,16
     9c6:	478d                	li	a5,3
     9c8:	80050513          	addi	a0,a0,-2048 # 40010800 <__global_pointer$+0x2000ffb8>
     9cc:	80f8                	sh	a4,16(sp)
     9ce:	c03a                	sw	a4,0(sp)
     9d0:	ca3e                	sw	a5,20(sp)
     9d2:	3c9000ef          	jal	ra,159a <GPIO_Init>
     9d6:	209e                	lhu	a5,0(s1)
     9d8:	40013437          	lui	s0,0x40013
     9dc:	004c                	addi	a1,sp,4
     9de:	847c                	sh	a5,8(sp)
     9e0:	c0040513          	addi	a0,s0,-1024 # 40012c00 <__global_pointer$+0x200123b8>
     9e4:	47a5                	li	a5,9
     9e6:	c23e                	sw	a5,4(sp)
     9e8:	00011523          	sh	zero,10(sp)
     9ec:	70f000ef          	jal	ra,18fa <TIM_TimeBaseInit>
     9f0:	67c1                	lui	a5,0x10
     9f2:	06078793          	addi	a5,a5,96 # 10060 <_data_lma+0xcd68>
     9f6:	4702                	lw	a4,0(sp)
     9f8:	ce3e                	sw	a5,28(sp)
     9fa:	20be                	lhu	a5,2(s1)
     9fc:	086c                	addi	a1,sp,28
     9fe:	c0040513          	addi	a0,s0,-1024
     a02:	02e11023          	sh	a4,32(sp)
     a06:	02f11123          	sh	a5,34(sp)
     a0a:	d202                	sw	zero,36(sp)
     a0c:	73d000ef          	jal	ra,1948 <TIM_OC2Init>
     a10:	45a1                	li	a1,8
     a12:	c0040513          	addi	a0,s0,-1024
     a16:	010010ef          	jal	ra,1a26 <TIM_OC2PreloadConfig>
     a1a:	4585                	li	a1,1
     a1c:	c0040513          	addi	a0,s0,-1024
     a20:	7ed000ef          	jal	ra,1a0c <TIM_ARRPreloadConfig>
     a24:	20ae                	lhu	a1,2(s1)
     a26:	c0040513          	addi	a0,s0,-1024
     a2a:	012010ef          	jal	ra,1a3c <TIM_SetCompare2>
     a2e:	4585                	li	a1,1
     a30:	c0040513          	addi	a0,s0,-1024
     a34:	7c3000ef          	jal	ra,19f6 <TIM_CtrlPWMOutputs>
     a38:	4585                	li	a1,1
     a3a:	c0040513          	addi	a0,s0,-1024
     a3e:	7a1000ef          	jal	ra,19de <TIM_Cmd>
     a42:	4581                	li	a1,0
     a44:	c0040513          	addi	a0,s0,-1024
     a48:	7f5000ef          	jal	ra,1a3c <TIM_SetCompare2>
     a4c:	ab7ff0ef          	jal	ra,502 <Pwm::disable() [clone .isra.4]>
     a50:	04600613          	li	a2,70
     a54:	02800593          	li	a1,40
     a58:	3e800513          	li	a0,1000
     a5c:	fa2ff0ef          	jal	ra,1fe <tone1_vol>
     a60:	06400613          	li	a2,100
     a64:	05000593          	li	a1,80
     a68:	5dc00513          	li	a0,1500
     a6c:	f92ff0ef          	jal	ra,1fe <tone1_vol>
     a70:	05000613          	li	a2,80
     a74:	02800593          	li	a1,40
     a78:	4b000513          	li	a0,1200
     a7c:	f82ff0ef          	jal	ra,1fe <tone1_vol>
     a80:	04600613          	li	a2,70
     a84:	02800593          	li	a1,40
     a88:	3e800513          	li	a0,1000
     a8c:	f72ff0ef          	jal	ra,1fe <tone1_vol>
     a90:	03200513          	li	a0,50
     a94:	0a2010ef          	jal	ra,1b36 <delay>
     a98:	5dc00513          	li	a0,1500
     a9c:	06400613          	li	a2,100
     aa0:	05000593          	li	a1,80
     aa4:	f5aff0ef          	jal	ra,1fe <tone1_vol>
     aa8:	3bb5                	jal	824 <gotoDeepSleep>
     aaa:	00003537          	lui	a0,0x3
     aae:	03c50513          	addi	a0,a0,60 # 303c <puts+0xda0>
     ab2:	7ea010ef          	jal	ra,229c <puts>
     ab6:	45c1                	li	a1,16
     ab8:	40011537          	lui	a0,0x40011
     abc:	35b000ef          	jal	ra,1616 <GPIO_ReadInputDataBit>
     ac0:	80818793          	addi	a5,gp,-2040 # 20000050 <b>
     ac4:	2b98                	lbu	a4,16(a5)
     ac6:	00153513          	seqz	a0,a0
     aca:	02a71263          	bne	a4,a0,aee <main+0x21e>
     ace:	4681                	li	a3,0
     ad0:	4701                	li	a4,0
     ad2:	c794                	sw	a3,8(a5)
     ad4:	c7d8                	sw	a4,12(a5)
     ad6:	2bb4                	lbu	a3,18(a5)
     ad8:	4639                	li	a2,14
     ada:	2b98                	lbu	a4,16(a5)
     adc:	06d66b63          	bltu	a2,a3,b52 <main+0x282>
     ae0:	6609                	lui	a2,0x2
     ae2:	068a                	slli	a3,a3,0x2
     ae4:	30c60613          	addi	a2,a2,780 # 230c <puts+0x70>
     ae8:	96b2                	add	a3,a3,a2
     aea:	4294                	lw	a3,0(a3)
     aec:	8682                	jr	a3
     aee:	4798                	lw	a4,8(a5)
     af0:	00c7a303          	lw	t1,12(a5)
     af4:	200005b7          	lui	a1,0x20000
     af8:	04858593          	addi	a1,a1,72 # 20000048 <_edata>
     afc:	4194                	lw	a3,0(a1)
     afe:	41d0                	lw	a2,4(a1)
     b00:	006765b3          	or	a1,a4,t1
     b04:	e581                	bnez	a1,b0c <main+0x23c>
     b06:	c794                	sw	a3,8(a5)
     b08:	c7d0                	sw	a2,12(a5)
     b0a:	b7f1                	j	ad6 <main+0x206>
     b0c:	40e68733          	sub	a4,a3,a4
     b10:	00e6b6b3          	sltu	a3,a3,a4
     b14:	40660633          	sub	a2,a2,t1
     b18:	00d61663          	bne	a2,a3,b24 <main+0x254>
     b1c:	03100693          	li	a3,49
     b20:	fae6fbe3          	bgeu	a3,a4,ad6 <main+0x206>
     b24:	ab88                	sb	a0,16(a5)
     b26:	bf45                	j	ad6 <main+0x206>
     b28:	c70d                	beqz	a4,b52 <main+0x282>
     b2a:	4705                	li	a4,1
     b2c:	abb8                	sb	a4,18(a5)
     b2e:	a015                	j	b52 <main+0x282>
     b30:	470d                	li	a4,3
     b32:	abb8                	sb	a4,18(a5)
     b34:	20000737          	lui	a4,0x20000
     b38:	04870713          	addi	a4,a4,72 # 20000048 <_edata>
     b3c:	4310                	lw	a2,0(a4)
     b3e:	4354                	lw	a3,4(a4)
     b40:	c390                	sw	a2,0(a5)
     b42:	c3d4                	sw	a3,4(a5)
     b44:	a039                	j	b52 <main+0x282>
     b46:	e74d                	bnez	a4,bf0 <main+0x320>
     b48:	4709                	li	a4,2
     b4a:	abb8                	sb	a4,18(a5)
     b4c:	3bb8                	lbu	a4,19(a5)
     b4e:	0705                	addi	a4,a4,1
     b50:	bbb8                	sb	a4,19(a5)
     b52:	8681a703          	lw	a4,-1944(gp) # 200000b0 <screen>
     b56:	86818413          	addi	s0,gp,-1944 # 200000b0 <screen>
     b5a:	e311                	bnez	a4,b5e <main+0x28e>
     b5c:	2601                	jal	e5c <ScreenNormal>
     b5e:	4014                	lw	a3,0(s0)
     b60:	4705                	li	a4,1
     b62:	00e69363          	bne	a3,a4,b68 <main+0x298>
     b66:	29b5                	jal	fe2 <ScreenPower>
     b68:	4014                	lw	a3,0(s0)
     b6a:	4709                	li	a4,2
     b6c:	82018493          	addi	s1,gp,-2016 # 20000068 <comandMotorOn>
     b70:	00e69563          	bne	a3,a4,b7a <main+0x2aa>
     b74:	2345                	jal	1114 <ScreenBoostEnable>
     b76:	00049023          	sh	zero,0(s1)
     b7a:	4014                	lw	a3,0(s0)
     b7c:	470d                	li	a4,3
     b7e:	00e69663          	bne	a3,a4,b8a <main+0x2ba>
     b82:	00049023          	sh	zero,0(s1)
     b86:	612000ef          	jal	ra,1198 <ScreenBoostPower>
     b8a:	4018                	lw	a4,0(s0)
     b8c:	4791                	li	a5,4
     b8e:	00f71663          	bne	a4,a5,b9a <main+0x2ca>
     b92:	00049023          	sh	zero,0(s1)
     b96:	64c000ef          	jal	ra,11e2 <ScreenBoostTime>
     b9a:	209e                	lhu	a5,0(s1)
     b9c:	18078c63          	beqz	a5,d34 <main+0x464>
     ba0:	200007b7          	lui	a5,0x20000
     ba4:	00c7d583          	lhu	a1,12(a5) # 2000000c <_highcode_vma_end>
     ba8:	400134b7          	lui	s1,0x40013
     bac:	c0048513          	addi	a0,s1,-1024 # 40012c00 <__global_pointer$+0x200123b8>
     bb0:	68d000ef          	jal	ra,1a3c <TIM_SetCompare2>
     bb4:	4791                	li	a5,4
     bb6:	86fc                	sh	a5,28(sp)
     bb8:	40011537          	lui	a0,0x40011
     bbc:	47e1                	li	a5,24
     bbe:	d23e                	sw	a5,36(sp)
     bc0:	086c                	addi	a1,sp,28
     bc2:	478d                	li	a5,3
     bc4:	80050513          	addi	a0,a0,-2048 # 40010800 <__global_pointer$+0x2000ffb8>
     bc8:	d03e                	sw	a5,32(sp)
     bca:	1d1000ef          	jal	ra,159a <GPIO_Init>
     bce:	4585                	li	a1,1
     bd0:	c0048513          	addi	a0,s1,-1024
     bd4:	60b000ef          	jal	ra,19de <TIM_Cmd>
     bd8:	4585                	li	a1,1
     bda:	c0048513          	addi	a0,s1,-1024
     bde:	619000ef          	jal	ra,19f6 <TIM_CtrlPWMOutputs>
     be2:	4605                	li	a2,1
     be4:	4591                	li	a1,4
     be6:	40011537          	lui	a0,0x40011
     bea:	237000ef          	jal	ra,1620 <GPIO_WriteBit>
     bee:	b5e1                	j	ab6 <main+0x1e6>
     bf0:	20000737          	lui	a4,0x20000
     bf4:	04870713          	addi	a4,a4,72 # 20000048 <_edata>
     bf8:	4310                	lw	a2,0(a4)
     bfa:	4394                	lw	a3,0(a5)
     bfc:	434c                	lw	a1,4(a4)
     bfe:	43d8                	lw	a4,4(a5)
     c00:	40d606b3          	sub	a3,a2,a3
     c04:	00d63533          	sltu	a0,a2,a3
     c08:	40e58733          	sub	a4,a1,a4
     c0c:	8f09                	sub	a4,a4,a0
     c0e:	00e04763          	bgtz	a4,c1c <main+0x34c>
     c12:	f321                	bnez	a4,b52 <main+0x282>
     c14:	7cf00713          	li	a4,1999
     c18:	f2d77de3          	bgeu	a4,a3,b52 <main+0x282>
     c1c:	4711                	li	a4,4
     c1e:	abb8                	sb	a4,18(a5)
     c20:	c390                	sw	a2,0(a5)
     c22:	c3cc                	sw	a1,4(a5)
     c24:	b73d                	j	b52 <main+0x282>
     c26:	4719                	li	a4,6
     c28:	b711                	j	b2c <main+0x25c>
     c2a:	e319                	bnez	a4,c30 <main+0x360>
     c2c:	4715                	li	a4,5
     c2e:	bdfd                	j	b2c <main+0x25c>
     c30:	20000737          	lui	a4,0x20000
     c34:	04870713          	addi	a4,a4,72 # 20000048 <_edata>
     c38:	4310                	lw	a2,0(a4)
     c3a:	4394                	lw	a3,0(a5)
     c3c:	434c                	lw	a1,4(a4)
     c3e:	43d8                	lw	a4,4(a5)
     c40:	40d606b3          	sub	a3,a2,a3
     c44:	00d63533          	sltu	a0,a2,a3
     c48:	40e58733          	sub	a4,a1,a4
     c4c:	8f09                	sub	a4,a4,a0
     c4e:	00e04863          	bgtz	a4,c5e <main+0x38e>
     c52:	f00710e3          	bnez	a4,b52 <main+0x282>
     c56:	3e700713          	li	a4,999
     c5a:	eed77ce3          	bgeu	a4,a3,b52 <main+0x282>
     c5e:	471d                	li	a4,7
     c60:	bf7d                	j	c1e <main+0x34e>
     c62:	4721                	li	a4,8
     c64:	b5e1                	j	b2c <main+0x25c>
     c66:	e319                	bnez	a4,c6c <main+0x39c>
     c68:	4725                	li	a4,9
     c6a:	b5c9                	j	b2c <main+0x25c>
     c6c:	20000737          	lui	a4,0x20000
     c70:	04870713          	addi	a4,a4,72 # 20000048 <_edata>
     c74:	4310                	lw	a2,0(a4)
     c76:	4394                	lw	a3,0(a5)
     c78:	434c                	lw	a1,4(a4)
     c7a:	43d8                	lw	a4,4(a5)
     c7c:	40d606b3          	sub	a3,a2,a3
     c80:	00d63533          	sltu	a0,a2,a3
     c84:	40e58733          	sub	a4,a1,a4
     c88:	8f09                	sub	a4,a4,a0
     c8a:	00e04863          	bgtz	a4,c9a <main+0x3ca>
     c8e:	ec0712e3          	bnez	a4,b52 <main+0x282>
     c92:	3e700713          	li	a4,999
     c96:	ead77ee3          	bgeu	a4,a3,b52 <main+0x282>
     c9a:	471d                	li	a4,7
     c9c:	abb8                	sb	a4,18(a5)
     c9e:	3b98                	lbu	a4,17(a5)
     ca0:	0705                	addi	a4,a4,1
     ca2:	bb98                	sb	a4,17(a5)
     ca4:	bfb5                	j	c20 <main+0x350>
     ca6:	000789a3          	sb	zero,19(a5)
     caa:	4729                	li	a4,10
     cac:	b541                	j	b2c <main+0x25c>
     cae:	3bb4                	lbu	a3,19(a5)
     cb0:	000788a3          	sb	zero,17(a5)
     cb4:	472d                	li	a4,11
     cb6:	e6069ee3          	bnez	a3,b32 <main+0x262>
     cba:	4735                	li	a4,13
     cbc:	bd9d                	j	b32 <main+0x262>
     cbe:	e60716e3          	bnez	a4,b2a <main+0x25a>
     cc2:	20000737          	lui	a4,0x20000
     cc6:	04870713          	addi	a4,a4,72 # 20000048 <_edata>
     cca:	4310                	lw	a2,0(a4)
     ccc:	4394                	lw	a3,0(a5)
     cce:	434c                	lw	a1,4(a4)
     cd0:	43d8                	lw	a4,4(a5)
     cd2:	40d606b3          	sub	a3,a2,a3
     cd6:	00d63533          	sltu	a0,a2,a3
     cda:	40e58733          	sub	a4,a1,a4
     cde:	8f09                	sub	a4,a4,a0
     ce0:	00e04863          	bgtz	a4,cf0 <main+0x420>
     ce4:	e60717e3          	bnez	a4,b52 <main+0x282>
     ce8:	1f300713          	li	a4,499
     cec:	e6d773e3          	bgeu	a4,a3,b52 <main+0x282>
     cf0:	4731                	li	a4,12
     cf2:	b735                	j	c1e <main+0x34e>
     cf4:	4735                	li	a4,13
     cf6:	abba                	sh	a4,18(a5)
     cf8:	bda9                	j	b52 <main+0x282>
     cfa:	e20718e3          	bnez	a4,b2a <main+0x25a>
     cfe:	20000737          	lui	a4,0x20000
     d02:	04870713          	addi	a4,a4,72 # 20000048 <_edata>
     d06:	4310                	lw	a2,0(a4)
     d08:	4394                	lw	a3,0(a5)
     d0a:	4358                	lw	a4,4(a4)
     d0c:	43cc                	lw	a1,4(a5)
     d0e:	40d606b3          	sub	a3,a2,a3
     d12:	00d63633          	sltu	a2,a2,a3
     d16:	8f0d                	sub	a4,a4,a1
     d18:	8f11                	sub	a4,a4,a2
     d1a:	00e04863          	bgtz	a4,d2a <main+0x45a>
     d1e:	e2071ae3          	bnez	a4,b52 <main+0x282>
     d22:	3e700713          	li	a4,999
     d26:	e2d776e3          	bgeu	a4,a3,b52 <main+0x282>
     d2a:	4739                	li	a4,14
     d2c:	b501                	j	b2c <main+0x25c>
     d2e:	00078923          	sb	zero,18(a5)
     d32:	b505                	j	b52 <main+0x282>
     d34:	fceff0ef          	jal	ra,502 <Pwm::disable() [clone .isra.4]>
     d38:	4601                	li	a2,0
     d3a:	b56d                	j	be4 <main+0x314>

00000d3c <_GLOBAL__sub_I_b>:
     d3c:	80818793          	addi	a5,gp,-2040 # 20000050 <b>
     d40:	4701                	li	a4,0
     d42:	4681                	li	a3,0
     d44:	c7d8                	sw	a4,12(a5)
     d46:	c3d8                	sw	a4,4(a5)
     d48:	c394                	sw	a3,0(a5)
     d4a:	c794                	sw	a3,8(a5)
     d4c:	0007a823          	sw	zero,16(a5)
     d50:	003207b7          	lui	a5,0x320
     d54:	06478793          	addi	a5,a5,100 # 320064 <_data_lma+0x31cd6c>
     d58:	86f1a223          	sw	a5,-1948(gp) # 200000ac <pwm>
     d5c:	85418793          	addi	a5,gp,-1964 # 2000009c <eeprom_power>
     d60:	0007a023          	sw	zero,0(a5)
     d64:	0007a223          	sw	zero,4(a5)
     d68:	0007a423          	sw	zero,8(a5)
     d6c:	00078623          	sb	zero,12(a5)
     d70:	00079723          	sh	zero,14(a5)
     d74:	82418793          	addi	a5,gp,-2012 # 2000006c <eeprom_boostEnable>
     d78:	0007a023          	sw	zero,0(a5)
     d7c:	0007a223          	sw	zero,4(a5)
     d80:	0007a423          	sw	zero,8(a5)
     d84:	00078623          	sb	zero,12(a5)
     d88:	00079723          	sh	zero,14(a5)
     d8c:	83418793          	addi	a5,gp,-1996 # 2000007c <eeprom_boostPower>
     d90:	0007a023          	sw	zero,0(a5)
     d94:	0007a223          	sw	zero,4(a5)
     d98:	0007a423          	sw	zero,8(a5)
     d9c:	00078623          	sb	zero,12(a5)
     da0:	00079723          	sh	zero,14(a5)
     da4:	84418793          	addi	a5,gp,-1980 # 2000008c <eeprom_boostTime>
     da8:	0007a023          	sw	zero,0(a5)
     dac:	0007a223          	sw	zero,4(a5)
     db0:	0007a423          	sw	zero,8(a5)
     db4:	00078623          	sb	zero,12(a5)
     db8:	00079723          	sh	zero,14(a5)
     dbc:	8082                	ret

00000dbe <uEeprom::set(unsigned short)>:
     dbe:	aeeff2ef          	jal	t0,ac <__riscv_save_0>
     dc2:	255c                	lbu	a5,12(a0)
     dc4:	eb89                	bnez	a5,dd6 <uEeprom::set(unsigned short)+0x18>
     dc6:	00003537          	lui	a0,0x3
     dca:	15450513          	addi	a0,a0,340 # 3154 <puts+0xeb8>
     dce:	4ce010ef          	jal	ra,229c <puts>
     dd2:	ae4ff06f          	j	b6 <__riscv_restore_0>
     dd6:	2136                	lhu	a3,2(a0)
     dd8:	842a                	mv	s0,a0
     dda:	84ae                	mv	s1,a1
     ddc:	215a                	lhu	a4,4(a0)
     dde:	00d5e463          	bltu	a1,a3,de6 <uEeprom::set(unsigned short)+0x28>
     de2:	00b77e63          	bgeu	a4,a1,dfe <uEeprom::set(unsigned short)+0x40>
     de6:	440c                	lw	a1,8(s0)
     de8:	00003537          	lui	a0,0x3
     dec:	8626                	mv	a2,s1
     dee:	1b050513          	addi	a0,a0,432 # 31b0 <puts+0xf14>
     df2:	486010ef          	jal	ra,2278 <printf>
     df6:	203e                	lhu	a5,2(s0)
     df8:	02f4e063          	bltu	s1,a5,e18 <uEeprom::set(unsigned short)+0x5a>
     dfc:	2046                	lhu	s1,4(s0)
     dfe:	00e41683          	lh	a3,14(s0)
     e02:	2012                	lhu	a2,0(s0)
     e04:	440c                	lw	a1,8(s0)
     e06:	00003537          	lui	a0,0x3
     e0a:	8726                	mv	a4,s1
     e0c:	24850513          	addi	a0,a0,584 # 3248 <puts+0xfac>
     e10:	468010ef          	jal	ra,2278 <printf>
     e14:	a466                	sh	s1,14(s0)
     e16:	bf75                	j	dd2 <uEeprom::set(unsigned short)+0x14>
     e18:	84be                	mv	s1,a5
     e1a:	b7d5                	j	dfe <uEeprom::set(unsigned short)+0x40>

00000e1c <beep(int)>:
     e1c:	a90ff2ef          	jal	t0,ac <__riscv_save_0>
     e20:	84aa                	mv	s1,a0
     e22:	3e800513          	li	a0,1000
     e26:	511000ef          	jal	ra,1b36 <delay>
     e2a:	4401                	li	s0,0
     e2c:	02945663          	bge	s0,s1,e58 <beep(int)+0x3c>
     e30:	4605                	li	a2,1
     e32:	4591                	li	a1,4
     e34:	40011537          	lui	a0,0x40011
     e38:	7e8000ef          	jal	ra,1620 <GPIO_WriteBit>
     e3c:	c6eff0ef          	jal	ra,2aa <buzzer_warning>
     e40:	4601                	li	a2,0
     e42:	4591                	li	a1,4
     e44:	40011537          	lui	a0,0x40011
     e48:	7d8000ef          	jal	ra,1620 <GPIO_WriteBit>
     e4c:	0c800513          	li	a0,200
     e50:	4e7000ef          	jal	ra,1b36 <delay>
     e54:	0405                	addi	s0,s0,1
     e56:	bfd9                	j	e2c <beep(int)+0x10>
     e58:	a5eff06f          	j	b6 <__riscv_restore_0>

00000e5c <ScreenNormal>:
     e5c:	a50ff2ef          	jal	t0,ac <__riscv_save_0>
     e60:	20000437          	lui	s0,0x20000
     e64:	05040793          	addi	a5,s0,80 # 20000050 <b>
     e68:	2bb8                	lbu	a4,18(a5)
     e6a:	4789                	li	a5,2
     e6c:	05040413          	addi	s0,s0,80
     e70:	02f71063          	bne	a4,a5,e90 <ScreenNormal+0x34>
     e74:	00003537          	lui	a0,0x3
     e78:	0bc50513          	addi	a0,a0,188 # 30bc <puts+0xe20>
     e7c:	420010ef          	jal	ra,229c <puts>
     e80:	c64ff0ef          	jal	ra,2e4 <buzzer_ios_click>
     e84:	8201d703          	lhu	a4,-2016(gp) # 20000068 <comandMotorOn>
     e88:	12070663          	beqz	a4,fb4 <ScreenNormal+0x158>
     e8c:	82019023          	sh	zero,-2016(gp) # 20000068 <comandMotorOn>
     e90:	2838                	lbu	a4,18(s0)
     e92:	4791                	li	a5,4
     e94:	00f71e63          	bne	a4,a5,eb0 <ScreenNormal+0x54>
     e98:	00003537          	lui	a0,0x3
     e9c:	0c450513          	addi	a0,a0,196 # 30c4 <puts+0xe28>
     ea0:	3fc010ef          	jal	ra,229c <puts>
     ea4:	c72ff0ef          	jal	ra,316 <buzzer_startup>
     ea8:	8601a623          	sw	zero,-1940(gp) # 200000b4 <ScreenNormal::step>
     eac:	82019023          	sh	zero,-2016(gp) # 20000068 <comandMotorOn>
     eb0:	2838                	lbu	a4,18(s0)
     eb2:	479d                	li	a5,7
     eb4:	02f71e63          	bne	a4,a5,ef0 <ScreenNormal+0x94>
     eb8:	86c18793          	addi	a5,gp,-1940 # 200000b4 <ScreenNormal::step>
     ebc:	438c                	lw	a1,0(a5)
     ebe:	00003537          	lui	a0,0x3
     ec2:	0cc50513          	addi	a0,a0,204 # 30cc <puts+0xe30>
     ec6:	0585                	addi	a1,a1,1
     ec8:	c38c                	sw	a1,0(a5)
     eca:	3ae010ef          	jal	ra,2278 <printf>
     ece:	c16ff0ef          	jal	ra,2e4 <buzzer_ios_click>
     ed2:	4605                	li	a2,1
     ed4:	4591                	li	a1,4
     ed6:	40011537          	lui	a0,0x40011
     eda:	746000ef          	jal	ra,1620 <GPIO_WriteBit>
     ede:	4515                	li	a0,5
     ee0:	457000ef          	jal	ra,1b36 <delay>
     ee4:	4601                	li	a2,0
     ee6:	4591                	li	a1,4
     ee8:	40011537          	lui	a0,0x40011
     eec:	734000ef          	jal	ra,1620 <GPIO_WriteBit>
     ef0:	2838                	lbu	a4,18(s0)
     ef2:	47a5                	li	a5,9
     ef4:	04f71b63          	bne	a4,a5,f4a <ScreenNormal+0xee>
     ef8:	00003537          	lui	a0,0x3
     efc:	0d850513          	addi	a0,a0,216 # 30d8 <puts+0xe3c>
     f00:	39c010ef          	jal	ra,229c <puts>
     f04:	86c1a783          	lw	a5,-1940(gp) # 200000b4 <ScreenNormal::step>
     f08:	4705                	li	a4,1
     f0a:	86c18493          	addi	s1,gp,-1940 # 200000b4 <ScreenNormal::step>
     f0e:	00e79663          	bne	a5,a4,f1a <ScreenNormal+0xbe>
     f12:	4505                	li	a0,1
     f14:	86f1a423          	sw	a5,-1944(gp) # 200000b0 <screen>
     f18:	3711                	jal	e1c <beep(int)>
     f1a:	409c                	lw	a5,0(s1)
     f1c:	4709                	li	a4,2
     f1e:	00e79663          	bne	a5,a4,f2a <ScreenNormal+0xce>
     f22:	4509                	li	a0,2
     f24:	86f1a423          	sw	a5,-1944(gp) # 200000b0 <screen>
     f28:	3dd5                	jal	e1c <beep(int)>
     f2a:	409c                	lw	a5,0(s1)
     f2c:	470d                	li	a4,3
     f2e:	00e79663          	bne	a5,a4,f3a <ScreenNormal+0xde>
     f32:	450d                	li	a0,3
     f34:	86f1a423          	sw	a5,-1944(gp) # 200000b0 <screen>
     f38:	35d5                	jal	e1c <beep(int)>
     f3a:	409c                	lw	a5,0(s1)
     f3c:	4711                	li	a4,4
     f3e:	00e79663          	bne	a5,a4,f4a <ScreenNormal+0xee>
     f42:	4511                	li	a0,4
     f44:	86f1a423          	sw	a5,-1944(gp) # 200000b0 <screen>
     f48:	3dd1                	jal	e1c <beep(int)>
     f4a:	2838                	lbu	a4,18(s0)
     f4c:	47a9                	li	a5,10
     f4e:	00f71e63          	bne	a4,a5,f6a <ScreenNormal+0x10e>
     f52:	00003537          	lui	a0,0x3
     f56:	0e850513          	addi	a0,a0,232 # 30e8 <puts+0xe4c>
     f5a:	342010ef          	jal	ra,229c <puts>
     f5e:	4601                	li	a2,0
     f60:	4591                	li	a1,4
     f62:	40011537          	lui	a0,0x40011
     f66:	6ba000ef          	jal	ra,1620 <GPIO_WriteBit>
     f6a:	2838                	lbu	a4,18(s0)
     f6c:	47b1                	li	a5,12
     f6e:	04f71763          	bne	a4,a5,fbc <ScreenNormal+0x160>
     f72:	382c                	lbu	a1,19(s0)
     f74:	00003537          	lui	a0,0x3
     f78:	10c50513          	addi	a0,a0,268 # 310c <puts+0xe70>
     f7c:	2fc010ef          	jal	ra,2278 <printf>
     f80:	3838                	lbu	a4,19(s0)
     f82:	4795                	li	a5,5
     f84:	02f71c63          	bne	a4,a5,fbc <ScreenNormal+0x160>
     f88:	bb2ff0ef          	jal	ra,33a <buzzer_shutdown>
     f8c:	baeff0ef          	jal	ra,33a <buzzer_shutdown>
     f90:	baaff0ef          	jal	ra,33a <buzzer_shutdown>
     f94:	ba6ff0ef          	jal	ra,33a <buzzer_shutdown>
     f98:	08800793          	li	a5,136
     f9c:	3007b073          	csrc	mstatus,a5
     fa0:	0000100f          	fence.i
     fa4:	beef07b7          	lui	a5,0xbeef0
     fa8:	e000e737          	lui	a4,0xe000e
     fac:	08078793          	addi	a5,a5,128 # beef0080 <__global_pointer$+0x9eeef838>
     fb0:	c73c                	sw	a5,72(a4)
     fb2:	a001                	j	fb2 <ScreenNormal+0x156>
     fb4:	4705                	li	a4,1
     fb6:	82e19023          	sh	a4,-2016(gp) # 20000068 <comandMotorOn>
     fba:	bdd9                	j	e90 <ScreenNormal+0x34>
     fbc:	2838                	lbu	a4,18(s0)
     fbe:	47b9                	li	a5,14
     fc0:	00f71f63          	bne	a4,a5,fde <ScreenNormal+0x182>
     fc4:	00003537          	lui	a0,0x3
     fc8:	0f450513          	addi	a0,a0,244 # 30f4 <puts+0xe58>
     fcc:	2d0010ef          	jal	ra,229c <puts>
     fd0:	b22ff0ef          	jal	ra,2f2 <buzzer_robot>
     fd4:	8201d783          	lhu	a5,-2016(gp) # 20000068 <comandMotorOn>
     fd8:	e399                	bnez	a5,fde <ScreenNormal+0x182>
     fda:	84bff0ef          	jal	ra,824 <gotoDeepSleep>
     fde:	8d8ff06f          	j	b6 <__riscv_restore_0>

00000fe2 <ScreenPower>:
     fe2:	8caff2ef          	jal	t0,ac <__riscv_save_0>
     fe6:	200004b7          	lui	s1,0x20000
     fea:	05048793          	addi	a5,s1,80 # 20000050 <b>
     fee:	2bb8                	lbu	a4,18(a5)
     ff0:	47b1                	li	a5,12
     ff2:	1171                	addi	sp,sp,-4
     ff4:	10f71d63          	bne	a4,a5,110e <ScreenPower+0x12c>
     ff8:	200007b7          	lui	a5,0x20000
     ffc:	00c7d503          	lhu	a0,12(a5) # 2000000c <_highcode_vma_end>
    1000:	4595                	li	a1,5
    1002:	05048493          	addi	s1,s1,80
    1006:	8daff0ef          	jal	ra,e0 <__udivsi3>
    100a:	38ac                	lbu	a1,19(s1)
    100c:	01051413          	slli	s0,a0,0x10
    1010:	00003537          	lui	a0,0x3
    1014:	10050513          	addi	a0,a0,256 # 3100 <puts+0xe64>
    1018:	260010ef          	jal	ra,2278 <printf>
    101c:	38b4                	lbu	a3,19(s1)
    101e:	200007b7          	lui	a5,0x20000
    1022:	4705                	li	a4,1
    1024:	c03e                	sw	a5,0(sp)
    1026:	8041                	srli	s0,s0,0x10
    1028:	02e69763          	bne	a3,a4,1056 <ScreenPower+0x74>
    102c:	0405                	addi	s0,s0,1
    102e:	47d1                	li	a5,20
    1030:	0c87d163          	bge	a5,s0,10f2 <ScreenPower+0x110>
    1034:	b2aff0ef          	jal	ra,35e <beep_Increment_Max>
    1038:	4451                	li	s0,20
    103a:	4702                	lw	a4,0(sp)
    103c:	38ac                	lbu	a1,19(s1)
    103e:	00241793          	slli	a5,s0,0x2
    1042:	00003537          	lui	a0,0x3
    1046:	97a2                	add	a5,a5,s0
    1048:	8622                	mv	a2,s0
    104a:	11c50513          	addi	a0,a0,284 # 311c <puts+0xe80>
    104e:	00f71623          	sh	a5,12(a4) # e000e00c <__global_pointer$+0xc000d7c4>
    1052:	226010ef          	jal	ra,2278 <printf>
    1056:	38b8                	lbu	a4,19(s1)
    1058:	4789                	li	a5,2
    105a:	00f71f63          	bne	a4,a5,1078 <ScreenPower+0x96>
    105e:	8601a423          	sw	zero,-1944(gp) # 200000b0 <screen>
    1062:	ad8ff0ef          	jal	ra,33a <buzzer_shutdown>
    1066:	4601                	li	a2,0
    1068:	4591                	li	a1,4
    106a:	40011537          	lui	a0,0x40011
    106e:	000488a3          	sb	zero,17(s1)
    1072:	00049923          	sh	zero,18(s1)
    1076:	236d                	jal	1620 <GPIO_WriteBit>
    1078:	38b8                	lbu	a4,19(s1)
    107a:	478d                	li	a5,3
    107c:	02f71663          	bne	a4,a5,10a8 <ScreenPower+0xc6>
    1080:	4785                	li	a5,1
    1082:	0687db63          	bge	a5,s0,10f8 <ScreenPower+0x116>
    1086:	147d                	addi	s0,s0,-1
    1088:	a32ff0ef          	jal	ra,2ba <buzzer_click>
    108c:	4702                	lw	a4,0(sp)
    108e:	38ac                	lbu	a1,19(s1)
    1090:	00241793          	slli	a5,s0,0x2
    1094:	00003537          	lui	a0,0x3
    1098:	97a2                	add	a5,a5,s0
    109a:	8622                	mv	a2,s0
    109c:	13450513          	addi	a0,a0,308 # 3134 <puts+0xe98>
    10a0:	00f71623          	sh	a5,12(a4)
    10a4:	1d4010ef          	jal	ra,2278 <printf>
    10a8:	38b8                	lbu	a4,19(s1)
    10aa:	4791                	li	a5,4
    10ac:	04f71963          	bne	a4,a5,10fe <ScreenPower+0x11c>
    10b0:	00003537          	lui	a0,0x3
    10b4:	14c50513          	addi	a0,a0,332 # 314c <puts+0xeb0>
    10b8:	1e4010ef          	jal	ra,229c <puts>
    10bc:	3e800513          	li	a0,1000
    10c0:	277000ef          	jal	ra,1b36 <delay>
    10c4:	4781                	li	a5,0
    10c6:	c03e                	sw	a5,0(sp)
    10c8:	02f40b63          	beq	s0,a5,10fe <ScreenPower+0x11c>
    10cc:	4605                	li	a2,1
    10ce:	4591                	li	a1,4
    10d0:	40011537          	lui	a0,0x40011
    10d4:	23b1                	jal	1620 <GPIO_WriteBit>
    10d6:	9f4ff0ef          	jal	ra,2ca <buzzer_beepboop>
    10da:	4601                	li	a2,0
    10dc:	4591                	li	a1,4
    10de:	40011537          	lui	a0,0x40011
    10e2:	2b3d                	jal	1620 <GPIO_WriteBit>
    10e4:	12c00513          	li	a0,300
    10e8:	24f000ef          	jal	ra,1b36 <delay>
    10ec:	4782                	lw	a5,0(sp)
    10ee:	0785                	addi	a5,a5,1
    10f0:	bfd9                	j	10c6 <ScreenPower+0xe4>
    10f2:	9c8ff0ef          	jal	ra,2ba <buzzer_click>
    10f6:	b791                	j	103a <ScreenPower+0x58>
    10f8:	aa6ff0ef          	jal	ra,39e <beep_Decrement_Min>
    10fc:	bf41                	j	108c <ScreenPower+0xaa>
    10fe:	38b8                	lbu	a4,19(s1)
    1100:	4795                	li	a5,5
    1102:	00f71663          	bne	a4,a5,110e <ScreenPower+0x12c>
    1106:	ad8ff0ef          	jal	ra,3de <beep_Save>
    110a:	ad4ff0ef          	jal	ra,3de <beep_Save>
    110e:	0111                	addi	sp,sp,4
    1110:	fa7fe06f          	j	b6 <__riscv_restore_0>

00001114 <ScreenBoostEnable>:
    1114:	f99fe2ef          	jal	t0,ac <__riscv_save_0>
    1118:	82418513          	addi	a0,gp,-2012 # 2000006c <eeprom_boostEnable>
    111c:	c2eff0ef          	jal	ra,54a <uEeprom::get()>
    1120:	4605                	li	a2,1
    1122:	e111                	bnez	a0,1126 <ScreenBoostEnable+0x12>
    1124:	4601                	li	a2,0
    1126:	4591                	li	a1,4
    1128:	40011537          	lui	a0,0x40011
    112c:	29d5                	jal	1620 <GPIO_WriteBit>
    112e:	20000437          	lui	s0,0x20000
    1132:	05040793          	addi	a5,s0,80 # 20000050 <b>
    1136:	2bb8                	lbu	a4,18(a5)
    1138:	47b1                	li	a5,12
    113a:	05040413          	addi	s0,s0,80
    113e:	04f71b63          	bne	a4,a5,1194 <ScreenBoostEnable+0x80>
    1142:	382c                	lbu	a1,19(s0)
    1144:	00003537          	lui	a0,0x3
    1148:	10c50513          	addi	a0,a0,268 # 310c <puts+0xe70>
    114c:	12c010ef          	jal	ra,2278 <printf>
    1150:	3838                	lbu	a4,19(s0)
    1152:	4785                	li	a5,1
    1154:	00f71f63          	bne	a4,a5,1172 <ScreenBoostEnable+0x5e>
    1158:	82418513          	addi	a0,gp,-2012 # 2000006c <eeprom_boostEnable>
    115c:	beeff0ef          	jal	ra,54a <uEeprom::get()>
    1160:	4581                	li	a1,0
    1162:	e111                	bnez	a0,1166 <ScreenBoostEnable+0x52>
    1164:	4585                	li	a1,1
    1166:	82418513          	addi	a0,gp,-2012 # 2000006c <eeprom_boostEnable>
    116a:	c55ff0ef          	jal	ra,dbe <uEeprom::set(unsigned short)>
    116e:	922ff0ef          	jal	ra,290 <buzzer_ok>
    1172:	3838                	lbu	a4,19(s0)
    1174:	4789                	li	a5,2
    1176:	00f71f63          	bne	a4,a5,1194 <ScreenBoostEnable+0x80>
    117a:	8601a423          	sw	zero,-1944(gp) # 200000b0 <screen>
    117e:	9bcff0ef          	jal	ra,33a <buzzer_shutdown>
    1182:	4601                	li	a2,0
    1184:	4591                	li	a1,4
    1186:	40011537          	lui	a0,0x40011
    118a:	000408a3          	sb	zero,17(s0)
    118e:	00041923          	sh	zero,18(s0)
    1192:	2179                	jal	1620 <GPIO_WriteBit>
    1194:	f23fe06f          	j	b6 <__riscv_restore_0>

00001198 <ScreenBoostPower>:
    1198:	81a1c703          	lbu	a4,-2022(gp) # 20000062 <b+0x12>
    119c:	4791                	li	a5,4
    119e:	00f71a63          	bne	a4,a5,11b2 <ScreenBoostPower+0x1a>
    11a2:	f0bfe2ef          	jal	t0,ac <__riscv_save_0>
    11a6:	8601a423          	sw	zero,-1944(gp) # 200000b0 <screen>
    11aa:	990ff0ef          	jal	ra,33a <buzzer_shutdown>
    11ae:	f09fe06f          	j	b6 <__riscv_restore_0>
    11b2:	8082                	ret

000011b4 <status(int)>:
    11b4:	ef9fe2ef          	jal	t0,ac <__riscv_save_0>
    11b8:	1171                	addi	sp,sp,-4
    11ba:	4401                	li	s0,0
    11bc:	c02a                	sw	a0,0(sp)
    11be:	00a45763          	bge	s0,a0,11cc <status(int)+0x18>
    11c2:	922ff0ef          	jal	ra,2e4 <buzzer_ios_click>
    11c6:	0405                	addi	s0,s0,1
    11c8:	4502                	lw	a0,0(sp)
    11ca:	bfcd                	j	11bc <status(int)+0x8>
    11cc:	0111                	addi	sp,sp,4
    11ce:	ee9fe06f          	j	b6 <__riscv_restore_0>

000011d2 <exit()>:
    11d2:	edbfe2ef          	jal	t0,ac <__riscv_save_0>
    11d6:	8601a423          	sw	zero,-1944(gp) # 200000b0 <screen>
    11da:	90aff0ef          	jal	ra,2e4 <buzzer_ios_click>
    11de:	ed9fe06f          	j	b6 <__riscv_restore_0>

000011e2 <ScreenBoostTime>:
    11e2:	ecbfe2ef          	jal	t0,ac <__riscv_save_0>
    11e6:	20000437          	lui	s0,0x20000
    11ea:	05040793          	addi	a5,s0,80 # 20000050 <b>
    11ee:	2bb8                	lbu	a4,18(a5)
    11f0:	4791                	li	a5,4
    11f2:	05040413          	addi	s0,s0,80
    11f6:	00f71e63          	bne	a4,a5,1212 <ScreenBoostTime+0x30>
    11fa:	00003537          	lui	a0,0x3
    11fe:	04450513          	addi	a0,a0,68 # 3044 <puts+0xda8>
    1202:	09a010ef          	jal	ra,229c <puts>
    1206:	910ff0ef          	jal	ra,316 <buzzer_startup>
    120a:	8601a823          	sw	zero,-1936(gp) # 200000b8 <ScreenBoostTime::step>
    120e:	82019023          	sh	zero,-2016(gp) # 20000068 <comandMotorOn>
    1212:	2838                	lbu	a4,18(s0)
    1214:	479d                	li	a5,7
    1216:	02f71c63          	bne	a4,a5,124e <ScreenBoostTime+0x6c>
    121a:	87018793          	addi	a5,gp,-1936 # 200000b8 <ScreenBoostTime::step>
    121e:	438c                	lw	a1,0(a5)
    1220:	00003537          	lui	a0,0x3
    1224:	05c50513          	addi	a0,a0,92 # 305c <puts+0xdc0>
    1228:	0585                	addi	a1,a1,1
    122a:	c38c                	sw	a1,0(a5)
    122c:	04c010ef          	jal	ra,2278 <printf>
    1230:	8b4ff0ef          	jal	ra,2e4 <buzzer_ios_click>
    1234:	4605                	li	a2,1
    1236:	4591                	li	a1,4
    1238:	40011537          	lui	a0,0x40011
    123c:	26d5                	jal	1620 <GPIO_WriteBit>
    123e:	4515                	li	a0,5
    1240:	0f7000ef          	jal	ra,1b36 <delay>
    1244:	4601                	li	a2,0
    1246:	4591                	li	a1,4
    1248:	40011537          	lui	a0,0x40011
    124c:	2ed1                	jal	1620 <GPIO_WriteBit>
    124e:	2838                	lbu	a4,18(s0)
    1250:	47a5                	li	a5,9
    1252:	02f71663          	bne	a4,a5,127e <ScreenBoostTime+0x9c>
    1256:	00003537          	lui	a0,0x3
    125a:	07850513          	addi	a0,a0,120 # 3078 <puts+0xddc>
    125e:	03e010ef          	jal	ra,229c <puts>
    1262:	8701a783          	lw	a5,-1936(gp) # 200000b8 <ScreenBoostTime::step>
    1266:	00003537          	lui	a0,0x3
    126a:	09850513          	addi	a0,a0,152 # 3098 <puts+0xdfc>
    126e:	00179593          	slli	a1,a5,0x1
    1272:	95be                	add	a1,a1,a5
    1274:	058e                	slli	a1,a1,0x3
    1276:	95be                	add	a1,a1,a5
    1278:	0586                	slli	a1,a1,0x1
    127a:	7ff000ef          	jal	ra,2278 <printf>
    127e:	2838                	lbu	a4,18(s0)
    1280:	47b1                	li	a5,12
    1282:	02f71b63          	bne	a4,a5,12b8 <ScreenBoostTime+0xd6>
    1286:	382c                	lbu	a1,19(s0)
    1288:	00003537          	lui	a0,0x3
    128c:	10c50513          	addi	a0,a0,268 # 310c <puts+0xe70>
    1290:	7e9000ef          	jal	ra,2278 <printf>
    1294:	3838                	lbu	a4,19(s0)
    1296:	4789                	li	a5,2
    1298:	00f71363          	bne	a4,a5,129e <ScreenBoostTime+0xbc>
    129c:	3f1d                	jal	11d2 <exit()>
    129e:	3838                	lbu	a4,19(s0)
    12a0:	478d                	li	a5,3
    12a2:	00f71b63          	bne	a4,a5,12b8 <ScreenBoostTime+0xd6>
    12a6:	00003537          	lui	a0,0x3
    12aa:	0ac50513          	addi	a0,a0,172 # 30ac <puts+0xe10>
    12ae:	7ef000ef          	jal	ra,229c <puts>
    12b2:	8701a503          	lw	a0,-1936(gp) # 200000b8 <ScreenBoostTime::step>
    12b6:	3dfd                	jal	11b4 <status(int)>
    12b8:	dfffe06f          	j	b6 <__riscv_restore_0>

000012bc <SystemInit>:
    12bc:	df1fe2ef          	jal	t0,ac <__riscv_save_0>
    12c0:	40021437          	lui	s0,0x40021
    12c4:	401c                	lw	a5,0(s0)
    12c6:	f8ff0737          	lui	a4,0xf8ff0
    12ca:	4541                	li	a0,16
    12cc:	0017e793          	ori	a5,a5,1
    12d0:	c01c                	sw	a5,0(s0)
    12d2:	405c                	lw	a5,4(s0)
    12d4:	8ff9                	and	a5,a5,a4
    12d6:	c05c                	sw	a5,4(s0)
    12d8:	401c                	lw	a5,0(s0)
    12da:	fef70737          	lui	a4,0xfef70
    12de:	177d                	addi	a4,a4,-1
    12e0:	8ff9                	and	a5,a5,a4
    12e2:	c01c                	sw	a5,0(s0)
    12e4:	401c                	lw	a5,0(s0)
    12e6:	fffc0737          	lui	a4,0xfffc0
    12ea:	177d                	addi	a4,a4,-1
    12ec:	8ff9                	and	a5,a5,a4
    12ee:	c01c                	sw	a5,0(s0)
    12f0:	405c                	lw	a5,4(s0)
    12f2:	7741                	lui	a4,0xffff0
    12f4:	177d                	addi	a4,a4,-1
    12f6:	8ff9                	and	a5,a5,a4
    12f8:	c05c                	sw	a5,4(s0)
    12fa:	009f07b7          	lui	a5,0x9f0
    12fe:	c41c                	sw	a5,8(s0)
    1300:	2329                	jal	180a <RCC_AdjustHSICalibrationValue>
    1302:	4c1c                	lw	a5,24(s0)
    1304:	0207e793          	ori	a5,a5,32
    1308:	cc1c                	sw	a5,24(s0)
    130a:	400117b7          	lui	a5,0x40011
    130e:	4007a703          	lw	a4,1024(a5) # 40011400 <__global_pointer$+0x20010bb8>
    1312:	40078693          	addi	a3,a5,1024
    1316:	f0f77713          	andi	a4,a4,-241
    131a:	40e7a023          	sw	a4,1024(a5)
    131e:	4007a703          	lw	a4,1024(a5)
    1322:	08076713          	ori	a4,a4,128
    1326:	40e7a023          	sw	a4,1024(a5)
    132a:	4789                	li	a5,2
    132c:	ca9c                	sw	a5,16(a3)
    132e:	400227b7          	lui	a5,0x40022
    1332:	4398                	lw	a4,0(a5)
    1334:	9b71                	andi	a4,a4,-4
    1336:	c398                	sw	a4,0(a5)
    1338:	4398                	lw	a4,0(a5)
    133a:	c398                	sw	a4,0(a5)
    133c:	405c                	lw	a5,4(s0)
    133e:	0207e793          	ori	a5,a5,32
    1342:	c05c                	sw	a5,4(s0)
    1344:	d73fe06f          	j	b6 <__riscv_restore_0>

00001348 <SystemCoreClockUpdate>:
    1348:	d65fe2ef          	jal	t0,ac <__riscv_save_0>
    134c:	40021737          	lui	a4,0x40021
    1350:	435c                	lw	a5,4(a4)
    1352:	20000437          	lui	s0,0x20000
    1356:	4691                	li	a3,4
    1358:	8bb1                	andi	a5,a5,12
    135a:	02040413          	addi	s0,s0,32 # 20000020 <SystemCoreClock>
    135e:	00d78563          	beq	a5,a3,1368 <SystemCoreClockUpdate+0x20>
    1362:	46a1                	li	a3,8
    1364:	04d78263          	beq	a5,a3,13a8 <SystemCoreClockUpdate+0x60>
    1368:	016e37b7          	lui	a5,0x16e3
    136c:	60078793          	addi	a5,a5,1536 # 16e3600 <_data_lma+0x16e0308>
    1370:	c01c                	sw	a5,0(s0)
    1372:	400216b7          	lui	a3,0x40021
    1376:	42dc                	lw	a5,4(a3)
    1378:	4008                	lw	a0,0(s0)
    137a:	8391                	srli	a5,a5,0x4
    137c:	00f7f713          	andi	a4,a5,15
    1380:	200007b7          	lui	a5,0x20000
    1384:	01078793          	addi	a5,a5,16 # 20000010 <AHBPrescTable>
    1388:	97ba                	add	a5,a5,a4
    138a:	238c                	lbu	a1,0(a5)
    138c:	42dc                	lw	a5,4(a3)
    138e:	0ff5f593          	andi	a1,a1,255
    1392:	0807f793          	andi	a5,a5,128
    1396:	00b55733          	srl	a4,a0,a1
    139a:	e781                	bnez	a5,13a2 <SystemCoreClockUpdate+0x5a>
    139c:	d45fe0ef          	jal	ra,e0 <__udivsi3>
    13a0:	872a                	mv	a4,a0
    13a2:	c018                	sw	a4,0(s0)
    13a4:	d13fe06f          	j	b6 <__riscv_restore_0>
    13a8:	435c                	lw	a5,4(a4)
    13aa:	02dc77b7          	lui	a5,0x2dc7
    13ae:	c0078793          	addi	a5,a5,-1024 # 2dc6c00 <_data_lma+0x2dc3908>
    13b2:	bf7d                	j	1370 <SystemCoreClockUpdate+0x28>

000013b4 <ADC1_IRQHandler>:
    13b4:	a001                	j	13b4 <ADC1_IRQHandler>

000013b6 <handle_reset>:
    13b6:	1ffff197          	auipc	gp,0x1ffff
    13ba:	49218193          	addi	gp,gp,1170 # 20000848 <__global_pointer$>
    13be:	fb818113          	addi	sp,gp,-72 # 20000800 <_eusrstack>
    13c2:	0a000513          	li	a0,160
    13c6:	1ffff597          	auipc	a1,0x1ffff
    13ca:	c3a58593          	addi	a1,a1,-966 # 20000000 <WFE>
    13ce:	1ffff617          	auipc	a2,0x1ffff
    13d2:	c3e60613          	addi	a2,a2,-962 # 2000000c <_highcode_vma_end>
    13d6:	00c5fa63          	bgeu	a1,a2,13ea <handle_reset+0x34>
    13da:	00052283          	lw	t0,0(a0)
    13de:	0055a023          	sw	t0,0(a1)
    13e2:	0511                	addi	a0,a0,4
    13e4:	0591                	addi	a1,a1,4
    13e6:	fec5eae3          	bltu	a1,a2,13da <handle_reset+0x24>
    13ea:	00002517          	auipc	a0,0x2
    13ee:	f0e50513          	addi	a0,a0,-242 # 32f8 <_data_lma>
    13f2:	1ffff597          	auipc	a1,0x1ffff
    13f6:	c1a58593          	addi	a1,a1,-998 # 2000000c <_highcode_vma_end>
    13fa:	1ffff617          	auipc	a2,0x1ffff
    13fe:	c4e60613          	addi	a2,a2,-946 # 20000048 <_edata>
    1402:	00c5fa63          	bgeu	a1,a2,1416 <handle_reset+0x60>
    1406:	00052283          	lw	t0,0(a0)
    140a:	0055a023          	sw	t0,0(a1)
    140e:	0511                	addi	a0,a0,4
    1410:	0591                	addi	a1,a1,4
    1412:	fec5eae3          	bltu	a1,a2,1406 <handle_reset+0x50>
    1416:	1ffff517          	auipc	a0,0x1ffff
    141a:	c3250513          	addi	a0,a0,-974 # 20000048 <_edata>
    141e:	87c18593          	addi	a1,gp,-1924 # 200000c4 <_ebss>
    1422:	00b57763          	bgeu	a0,a1,1430 <handle_reset+0x7a>
    1426:	00052023          	sw	zero,0(a0)
    142a:	0511                	addi	a0,a0,4
    142c:	feb56de3          	bltu	a0,a1,1426 <handle_reset+0x70>
    1430:	000022b7          	lui	t0,0x2
    1434:	88028293          	addi	t0,t0,-1920 # 1880 <RCC_GetClocksFreq+0x64>
    1438:	30029073          	csrw	mstatus,t0
    143c:	428d                	li	t0,3
    143e:	80429073          	csrw	0x804,t0
    1442:	fffff297          	auipc	t0,0xfffff
    1446:	bbe28293          	addi	t0,t0,-1090 # 0 <_sinit>
    144a:	0032e293          	ori	t0,t0,3
    144e:	30529073          	csrw	mtvec,t0
    1452:	e6bff0ef          	jal	ra,12bc <SystemInit>
    1456:	fffff297          	auipc	t0,0xfffff
    145a:	47a28293          	addi	t0,t0,1146 # 8d0 <main>
    145e:	34129073          	csrw	mepc,t0
    1462:	30200073          	mret

00001466 <EXTI_Init>:
    1466:	4158                	lw	a4,4(a0)
    1468:	00052303          	lw	t1,0(a0)
    146c:	454c                	lw	a1,12(a0)
    146e:	40010637          	lui	a2,0x40010
    1472:	40060793          	addi	a5,a2,1024 # 40010400 <__global_pointer$+0x2000fbb8>
    1476:	973e                	add	a4,a4,a5
    1478:	fff34693          	not	a3,t1
    147c:	c5b1                	beqz	a1,14c8 <EXTI_Init+0x62>
    147e:	40062583          	lw	a1,1024(a2)
    1482:	8df5                	and	a1,a1,a3
    1484:	40b62023          	sw	a1,1024(a2)
    1488:	43d0                	lw	a2,4(a5)
    148a:	8ef1                	and	a3,a3,a2
    148c:	c3d4                	sw	a3,4(a5)
    148e:	4314                	lw	a3,0(a4)
    1490:	0066e6b3          	or	a3,a3,t1
    1494:	c314                	sw	a3,0(a4)
    1496:	4118                	lw	a4,0(a0)
    1498:	4790                	lw	a2,8(a5)
    149a:	fff74693          	not	a3,a4
    149e:	8e75                	and	a2,a2,a3
    14a0:	c790                	sw	a2,8(a5)
    14a2:	47d0                	lw	a2,12(a5)
    14a4:	8ef1                	and	a3,a3,a2
    14a6:	c7d4                	sw	a3,12(a5)
    14a8:	4514                	lw	a3,8(a0)
    14aa:	4641                	li	a2,16
    14ac:	00c69963          	bne	a3,a2,14be <EXTI_Init+0x58>
    14b0:	4794                	lw	a3,8(a5)
    14b2:	8ed9                	or	a3,a3,a4
    14b4:	c794                	sw	a3,8(a5)
    14b6:	47d4                	lw	a3,12(a5)
    14b8:	8f55                	or	a4,a4,a3
    14ba:	c7d8                	sw	a4,12(a5)
    14bc:	8082                	ret
    14be:	97b6                	add	a5,a5,a3
    14c0:	4394                	lw	a3,0(a5)
    14c2:	8f55                	or	a4,a4,a3
    14c4:	c398                	sw	a4,0(a5)
    14c6:	8082                	ret
    14c8:	431c                	lw	a5,0(a4)
    14ca:	8ff5                	and	a5,a5,a3
    14cc:	c31c                	sw	a5,0(a4)
    14ce:	8082                	ret

000014d0 <FLASH_Unlock>:
    14d0:	456707b7          	lui	a5,0x45670
    14d4:	40022737          	lui	a4,0x40022
    14d8:	12378793          	addi	a5,a5,291 # 45670123 <__global_pointer$+0x2566f8db>
    14dc:	c35c                	sw	a5,4(a4)
    14de:	cdef97b7          	lui	a5,0xcdef9
    14e2:	9ab78793          	addi	a5,a5,-1621 # cdef89ab <__global_pointer$+0xadef8163>
    14e6:	c35c                	sw	a5,4(a4)
    14e8:	8082                	ret

000014ea <FLASH_Lock>:
    14ea:	40022737          	lui	a4,0x40022
    14ee:	4b1c                	lw	a5,16(a4)
    14f0:	0807e793          	ori	a5,a5,128
    14f4:	cb1c                	sw	a5,16(a4)
    14f6:	8082                	ret

000014f8 <FLASH_GetBank1Status>:
    14f8:	40022737          	lui	a4,0x40022
    14fc:	475c                	lw	a5,12(a4)
    14fe:	4505                	li	a0,1
    1500:	8b85                	andi	a5,a5,1
    1502:	e791                	bnez	a5,150e <FLASH_GetBank1Status+0x16>
    1504:	4748                	lw	a0,12(a4)
    1506:	8941                	andi	a0,a0,16
    1508:	00153513          	seqz	a0,a0
    150c:	050d                	addi	a0,a0,3
    150e:	8082                	ret

00001510 <FLASH_WaitForLastOperation>:
    1510:	b9dfe2ef          	jal	t0,ac <__riscv_save_0>
    1514:	842a                	mv	s0,a0
    1516:	37cd                	jal	14f8 <FLASH_GetBank1Status>
    1518:	4785                	li	a5,1
    151a:	00f51863          	bne	a0,a5,152a <FLASH_WaitForLastOperation+0x1a>
    151e:	e019                	bnez	s0,1524 <FLASH_WaitForLastOperation+0x14>
    1520:	4515                	li	a0,5
    1522:	a029                	j	152c <FLASH_WaitForLastOperation+0x1c>
    1524:	3fd1                	jal	14f8 <FLASH_GetBank1Status>
    1526:	147d                	addi	s0,s0,-1
    1528:	bfc5                	j	1518 <FLASH_WaitForLastOperation+0x8>
    152a:	d87d                	beqz	s0,1520 <FLASH_WaitForLastOperation+0x10>
    152c:	b8bfe06f          	j	b6 <__riscv_restore_0>

00001530 <FLASH_ProgramHalfWord>:
    1530:	b7dfe2ef          	jal	t0,ac <__riscv_save_0>
    1534:	1171                	addi	sp,sp,-4
    1536:	84aa                	mv	s1,a0
    1538:	6509                	lui	a0,0x2
    153a:	c02e                	sw	a1,0(sp)
    153c:	3fd1                	jal	1510 <FLASH_WaitForLastOperation>
    153e:	4791                	li	a5,4
    1540:	4582                	lw	a1,0(sp)
    1542:	00f51e63          	bne	a0,a5,155e <FLASH_ProgramHalfWord+0x2e>
    1546:	40022437          	lui	s0,0x40022
    154a:	481c                	lw	a5,16(s0)
    154c:	6509                	lui	a0,0x2
    154e:	0017e793          	ori	a5,a5,1
    1552:	c81c                	sw	a5,16(s0)
    1554:	a08e                	sh	a1,0(s1)
    1556:	3f6d                	jal	1510 <FLASH_WaitForLastOperation>
    1558:	481c                	lw	a5,16(s0)
    155a:	9bf9                	andi	a5,a5,-2
    155c:	c81c                	sw	a5,16(s0)
    155e:	0111                	addi	sp,sp,4
    1560:	b57fe06f          	j	b6 <__riscv_restore_0>

00001564 <FLASH_ErasePage_Fast>:
    1564:	f80007b7          	lui	a5,0xf8000
    1568:	97aa                	add	a5,a5,a0
    156a:	6711                	lui	a4,0x4
    156c:	02e7f663          	bgeu	a5,a4,1598 <FLASH_ErasePage_Fast+0x34>
    1570:	400227b7          	lui	a5,0x40022
    1574:	4b98                	lw	a4,16(a5)
    1576:	000206b7          	lui	a3,0x20
    157a:	8f55                	or	a4,a4,a3
    157c:	cb98                	sw	a4,16(a5)
    157e:	cbc8                	sw	a0,20(a5)
    1580:	4b98                	lw	a4,16(a5)
    1582:	04076713          	ori	a4,a4,64
    1586:	cb98                	sw	a4,16(a5)
    1588:	47d8                	lw	a4,12(a5)
    158a:	8b05                	andi	a4,a4,1
    158c:	ff75                	bnez	a4,1588 <FLASH_ErasePage_Fast+0x24>
    158e:	4b98                	lw	a4,16(a5)
    1590:	7681                	lui	a3,0xfffe0
    1592:	16fd                	addi	a3,a3,-1
    1594:	8f75                	and	a4,a4,a3
    1596:	cb98                	sw	a4,16(a5)
    1598:	8082                	ret

0000159a <GPIO_Init>:
    159a:	4594                	lw	a3,8(a1)
    159c:	0106f793          	andi	a5,a3,16
    15a0:	00f6f293          	andi	t0,a3,15
    15a4:	c781                	beqz	a5,15ac <GPIO_Init+0x12>
    15a6:	41dc                	lw	a5,4(a1)
    15a8:	00f2e2b3          	or	t0,t0,a5
    15ac:	0005d383          	lhu	t2,0(a1)
    15b0:	0ff3f793          	andi	a5,t2,255
    15b4:	c3a5                	beqz	a5,1614 <GPIO_Init+0x7a>
    15b6:	00052303          	lw	t1,0(a0) # 2000 <print+0xe8>
    15ba:	1161                	addi	sp,sp,-8
    15bc:	c222                	sw	s0,4(sp)
    15be:	c026                	sw	s1,0(sp)
    15c0:	4781                	li	a5,0
    15c2:	02800413          	li	s0,40
    15c6:	04800493          	li	s1,72
    15ca:	4705                	li	a4,1
    15cc:	00f71633          	sll	a2,a4,a5
    15d0:	00c3f733          	and	a4,t2,a2
    15d4:	02e61263          	bne	a2,a4,15f8 <GPIO_Init+0x5e>
    15d8:	00279593          	slli	a1,a5,0x2
    15dc:	473d                	li	a4,15
    15de:	00b71733          	sll	a4,a4,a1
    15e2:	fff74713          	not	a4,a4
    15e6:	00677333          	and	t1,a4,t1
    15ea:	00b295b3          	sll	a1,t0,a1
    15ee:	0065e333          	or	t1,a1,t1
    15f2:	00869d63          	bne	a3,s0,160c <GPIO_Init+0x72>
    15f6:	c950                	sw	a2,20(a0)
    15f8:	0785                	addi	a5,a5,1
    15fa:	4721                	li	a4,8
    15fc:	fce797e3          	bne	a5,a4,15ca <GPIO_Init+0x30>
    1600:	4412                	lw	s0,4(sp)
    1602:	00652023          	sw	t1,0(a0)
    1606:	4482                	lw	s1,0(sp)
    1608:	0121                	addi	sp,sp,8
    160a:	8082                	ret
    160c:	fe9696e3          	bne	a3,s1,15f8 <GPIO_Init+0x5e>
    1610:	c910                	sw	a2,16(a0)
    1612:	b7dd                	j	15f8 <GPIO_Init+0x5e>
    1614:	8082                	ret

00001616 <GPIO_ReadInputDataBit>:
    1616:	4508                	lw	a0,8(a0)
    1618:	8d6d                	and	a0,a0,a1
    161a:	00a03533          	snez	a0,a0
    161e:	8082                	ret

00001620 <GPIO_WriteBit>:
    1620:	c219                	beqz	a2,1626 <GPIO_WriteBit+0x6>
    1622:	c90c                	sw	a1,16(a0)
    1624:	8082                	ret
    1626:	c94c                	sw	a1,20(a0)
    1628:	8082                	ret

0000162a <GPIO_PinRemapConfig>:
    162a:	40010337          	lui	t1,0x40010
    162e:	00432703          	lw	a4,4(t1) # 40010004 <__global_pointer$+0x2000f7bc>
    1632:	00351793          	slli	a5,a0,0x3
    1636:	0207d063          	bgez	a5,1656 <GPIO_PinRemapConfig+0x2c>
    163a:	ffc007b7          	lui	a5,0xffc00
    163e:	17f5                	addi	a5,a5,-3
    1640:	8ff9                	and	a5,a5,a4
    1642:	07000737          	lui	a4,0x7000
    1646:	8fd9                	or	a5,a5,a4
    1648:	cdd9                	beqz	a1,16e6 <GPIO_PinRemapConfig+0xbc>
    164a:	f0000737          	lui	a4,0xf0000
    164e:	177d                	addi	a4,a4,-1
    1650:	8d79                	and	a0,a0,a4
    1652:	8fc9                	or	a5,a5,a0
    1654:	a849                	j	16e6 <GPIO_PinRemapConfig+0xbc>
    1656:	00055d63          	bgez	a0,1670 <GPIO_PinRemapConfig+0x46>
    165a:	ffe007b7          	lui	a5,0xffe00
    165e:	17ed                	addi	a5,a5,-5
    1660:	8ff9                	and	a5,a5,a4
    1662:	07000737          	lui	a4,0x7000
    1666:	8fd9                	or	a5,a5,a4
    1668:	cdbd                	beqz	a1,16e6 <GPIO_PinRemapConfig+0xbc>
    166a:	0506                	slli	a0,a0,0x1
    166c:	8105                	srli	a0,a0,0x1
    166e:	b7d5                	j	1652 <GPIO_PinRemapConfig+0x28>
    1670:	003007b7          	lui	a5,0x300
    1674:	01051693          	slli	a3,a0,0x10
    1678:	00f57633          	and	a2,a0,a5
    167c:	82c1                	srli	a3,a3,0x10
    167e:	02f61363          	bne	a2,a5,16a4 <GPIO_PinRemapConfig+0x7a>
    1682:	f9000637          	lui	a2,0xf9000
    1686:	167d                	addi	a2,a2,-1
    1688:	00c777b3          	and	a5,a4,a2
    168c:	00432703          	lw	a4,4(t1)
    1690:	8e79                	and	a2,a2,a4
    1692:	00c32223          	sw	a2,4(t1)
    1696:	c9a1                	beqz	a1,16e6 <GPIO_PinRemapConfig+0xbc>
    1698:	8155                	srli	a0,a0,0x15
    169a:	00451713          	slli	a4,a0,0x4
    169e:	00e69533          	sll	a0,a3,a4
    16a2:	bf45                	j	1652 <GPIO_PinRemapConfig+0x28>
    16a4:	00b51793          	slli	a5,a0,0xb
    16a8:	0207d463          	bgez	a5,16d0 <GPIO_PinRemapConfig+0xa6>
    16ac:	01055793          	srli	a5,a0,0x10
    16b0:	00f7f613          	andi	a2,a5,15
    16b4:	478d                	li	a5,3
    16b6:	00c797b3          	sll	a5,a5,a2
    16ba:	fff7c793          	not	a5,a5
    16be:	8ff9                	and	a5,a5,a4
    16c0:	07000737          	lui	a4,0x7000
    16c4:	8fd9                	or	a5,a5,a4
    16c6:	c185                	beqz	a1,16e6 <GPIO_PinRemapConfig+0xbc>
    16c8:	01555713          	srli	a4,a0,0x15
    16cc:	0712                	slli	a4,a4,0x4
    16ce:	bfc1                	j	169e <GPIO_PinRemapConfig+0x74>
    16d0:	8155                	srli	a0,a0,0x15
    16d2:	0512                	slli	a0,a0,0x4
    16d4:	00a69533          	sll	a0,a3,a0
    16d8:	fff54793          	not	a5,a0
    16dc:	8ff9                	and	a5,a5,a4
    16de:	07000737          	lui	a4,0x7000
    16e2:	8fd9                	or	a5,a5,a4
    16e4:	f5bd                	bnez	a1,1652 <GPIO_PinRemapConfig+0x28>
    16e6:	40010737          	lui	a4,0x40010
    16ea:	c35c                	sw	a5,4(a4)
    16ec:	8082                	ret

000016ee <GPIO_EXTILineConfig>:
    16ee:	40010737          	lui	a4,0x40010
    16f2:	4714                	lw	a3,8(a4)
    16f4:	0586                	slli	a1,a1,0x1
    16f6:	478d                	li	a5,3
    16f8:	00b797b3          	sll	a5,a5,a1
    16fc:	fff7c793          	not	a5,a5
    1700:	8ff5                	and	a5,a5,a3
    1702:	c71c                	sw	a5,8(a4)
    1704:	471c                	lw	a5,8(a4)
    1706:	00b515b3          	sll	a1,a0,a1
    170a:	8ddd                	or	a1,a1,a5
    170c:	c70c                	sw	a1,8(a4)
    170e:	8082                	ret

00001710 <NVIC_PriorityGroupConfig>:
    1710:	86a1aa23          	sw	a0,-1932(gp) # 200000bc <NVIC_Priority_Group>
    1714:	8082                	ret

00001716 <PWR_EnterSTANDBYMode>:
    1716:	997fe2ef          	jal	t0,ac <__riscv_save_0>
    171a:	400077b7          	lui	a5,0x40007
    171e:	4398                	lw	a4,0(a5)
    1720:	9b75                	andi	a4,a4,-3
    1722:	c398                	sw	a4,0(a5)
    1724:	4398                	lw	a4,0(a5)
    1726:	00276713          	ori	a4,a4,2
    172a:	c398                	sw	a4,0(a5)
    172c:	e000f7b7          	lui	a5,0xe000f
    1730:	d107a703          	lw	a4,-752(a5) # e000ed10 <__global_pointer$+0xc000e4c8>
    1734:	00476713          	ori	a4,a4,4
    1738:	d0e7a823          	sw	a4,-752(a5)
    173c:	d107a703          	lw	a4,-752(a5)
    1740:	8b11                	andi	a4,a4,4
    1742:	c345                	beqz	a4,17e2 <PWR_EnterSTANDBYMode+0xcc>
    1744:	08800793          	li	a5,136
    1748:	3007b073          	csrc	mstatus,a5
    174c:	0000100f          	fence.i
    1750:	400107b7          	lui	a5,0x40010
    1754:	4047a483          	lw	s1,1028(a5) # 40010404 <__global_pointer$+0x2000fbbc>
    1758:	4007a703          	lw	a4,1024(a5)
    175c:	4047a683          	lw	a3,1028(a5)
    1760:	8f55                	or	a4,a4,a3
    1762:	40e7a223          	sw	a4,1028(a5)
    1766:	e000f437          	lui	s0,0xe000f
    176a:	d1042703          	lw	a4,-752(s0) # e000ed10 <__global_pointer$+0xc000e4c8>
    176e:	d1042783          	lw	a5,-752(s0)
    1772:	454d                	li	a0,19
    1774:	02077713          	andi	a4,a4,32
    1778:	0287e793          	ori	a5,a5,40
    177c:	d0f42823          	sw	a5,-752(s0)
    1780:	d1042783          	lw	a5,-752(s0)
    1784:	fdf7f793          	andi	a5,a5,-33
    1788:	8fd9                	or	a5,a5,a4
    178a:	d0f42823          	sw	a5,-752(s0)
    178e:	d1042783          	lw	a5,-752(s0)
    1792:	0087e793          	ori	a5,a5,8
    1796:	d0f42823          	sw	a5,-752(s0)
    179a:	1ffff097          	auipc	ra,0x1ffff
    179e:	866080e7          	jalr	-1946(ra) # 20000000 <WFE>
    17a2:	d1042783          	lw	a5,-752(s0)
    17a6:	454d                	li	a0,19
    17a8:	0087e793          	ori	a5,a5,8
    17ac:	d0f42823          	sw	a5,-752(s0)
    17b0:	1ffff097          	auipc	ra,0x1ffff
    17b4:	850080e7          	jalr	-1968(ra) # 20000000 <WFE>
    17b8:	d1042783          	lw	a5,-752(s0)
    17bc:	8b91                	andi	a5,a5,4
    17be:	c3a1                	beqz	a5,17fe <PWR_EnterSTANDBYMode+0xe8>
    17c0:	400107b7          	lui	a5,0x40010
    17c4:	4097a223          	sw	s1,1028(a5) # 40010404 <__global_pointer$+0x2000fbbc>
    17c8:	08800793          	li	a5,136
    17cc:	3007a073          	csrs	mstatus,a5
    17d0:	e000f737          	lui	a4,0xe000f
    17d4:	d1072783          	lw	a5,-752(a4) # e000ed10 <__global_pointer$+0xc000e4c8>
    17d8:	9bed                	andi	a5,a5,-5
    17da:	d0f72823          	sw	a5,-752(a4)
    17de:	8d9fe06f          	j	b6 <__riscv_restore_0>
    17e2:	d107a703          	lw	a4,-752(a5)
    17e6:	01076713          	ori	a4,a4,16
    17ea:	d0e7a823          	sw	a4,-752(a5)
    17ee:	08800793          	li	a5,136
    17f2:	3007b073          	csrc	mstatus,a5
    17f6:	0000100f          	fence.i
    17fa:	4481                	li	s1,0
    17fc:	b7ad                	j	1766 <PWR_EnterSTANDBYMode+0x50>
    17fe:	d1042783          	lw	a5,-752(s0)
    1802:	9bbd                	andi	a5,a5,-17
    1804:	d0f42823          	sw	a5,-752(s0)
    1808:	b7c1                	j	17c8 <PWR_EnterSTANDBYMode+0xb2>

0000180a <RCC_AdjustHSICalibrationValue>:
    180a:	40021737          	lui	a4,0x40021
    180e:	431c                	lw	a5,0(a4)
    1810:	050e                	slli	a0,a0,0x3
    1812:	f077f793          	andi	a5,a5,-249
    1816:	8d5d                	or	a0,a0,a5
    1818:	c308                	sw	a0,0(a4)
    181a:	8082                	ret

0000181c <RCC_GetClocksFreq>:
    181c:	891fe2ef          	jal	t0,ac <__riscv_save_0>
    1820:	40021737          	lui	a4,0x40021
    1824:	435c                	lw	a5,4(a4)
    1826:	4691                	li	a3,4
    1828:	842a                	mv	s0,a0
    182a:	8bb1                	andi	a5,a5,12
    182c:	00d78563          	beq	a5,a3,1836 <RCC_GetClocksFreq+0x1a>
    1830:	46a1                	li	a3,8
    1832:	08d78063          	beq	a5,a3,18b2 <RCC_GetClocksFreq+0x96>
    1836:	016e37b7          	lui	a5,0x16e3
    183a:	60078793          	addi	a5,a5,1536 # 16e3600 <_data_lma+0x16e0308>
    183e:	c01c                	sw	a5,0(s0)
    1840:	400216b7          	lui	a3,0x40021
    1844:	42dc                	lw	a5,4(a3)
    1846:	8391                	srli	a5,a5,0x4
    1848:	00f7f713          	andi	a4,a5,15
    184c:	200007b7          	lui	a5,0x20000
    1850:	03878793          	addi	a5,a5,56 # 20000038 <APBAHBPrescTable>
    1854:	97ba                	add	a5,a5,a4
    1856:	238c                	lbu	a1,0(a5)
    1858:	42dc                	lw	a5,4(a3)
    185a:	4018                	lw	a4,0(s0)
    185c:	0ff5f593          	andi	a1,a1,255
    1860:	0807f793          	andi	a5,a5,128
    1864:	00b75533          	srl	a0,a4,a1
    1868:	e781                	bnez	a5,1870 <RCC_GetClocksFreq+0x54>
    186a:	853a                	mv	a0,a4
    186c:	875fe0ef          	jal	ra,e0 <__udivsi3>
    1870:	c048                	sw	a0,4(s0)
    1872:	c408                	sw	a0,8(s0)
    1874:	c448                	sw	a0,12(s0)
    1876:	400217b7          	lui	a5,0x40021
    187a:	43dc                	lw	a5,4(a5)
    187c:	468d                	li	a3,3
    187e:	83ad                	srli	a5,a5,0xb
    1880:	8bfd                	andi	a5,a5,31
    1882:	0037d713          	srli	a4,a5,0x3
    1886:	078a                	slli	a5,a5,0x2
    1888:	8bf1                	andi	a5,a5,28
    188a:	8fd9                	or	a5,a5,a4
    188c:	0137f613          	andi	a2,a5,19
    1890:	0037f713          	andi	a4,a5,3
    1894:	00c6f463          	bgeu	a3,a2,189c <RCC_GetClocksFreq+0x80>
    1898:	ff478713          	addi	a4,a5,-12 # 40020ff4 <__global_pointer$+0x200207ac>
    189c:	200007b7          	lui	a5,0x20000
    18a0:	02478793          	addi	a5,a5,36 # 20000024 <ADCPrescTable>
    18a4:	97ba                	add	a5,a5,a4
    18a6:	238c                	lbu	a1,0(a5)
    18a8:	839fe0ef          	jal	ra,e0 <__udivsi3>
    18ac:	c808                	sw	a0,16(s0)
    18ae:	809fe06f          	j	b6 <__riscv_restore_0>
    18b2:	435c                	lw	a5,4(a4)
    18b4:	02dc77b7          	lui	a5,0x2dc7
    18b8:	c0078793          	addi	a5,a5,-1024 # 2dc6c00 <_data_lma+0x2dc3908>
    18bc:	b749                	j	183e <RCC_GetClocksFreq+0x22>

000018be <RCC_APB2PeriphClockCmd>:
    18be:	c599                	beqz	a1,18cc <RCC_APB2PeriphClockCmd+0xe>
    18c0:	40021737          	lui	a4,0x40021
    18c4:	4f1c                	lw	a5,24(a4)
    18c6:	8d5d                	or	a0,a0,a5
    18c8:	cf08                	sw	a0,24(a4)
    18ca:	8082                	ret
    18cc:	400217b7          	lui	a5,0x40021
    18d0:	4f98                	lw	a4,24(a5)
    18d2:	fff54513          	not	a0,a0
    18d6:	8d79                	and	a0,a0,a4
    18d8:	cf88                	sw	a0,24(a5)
    18da:	8082                	ret

000018dc <RCC_APB1PeriphClockCmd>:
    18dc:	c599                	beqz	a1,18ea <RCC_APB1PeriphClockCmd+0xe>
    18de:	40021737          	lui	a4,0x40021
    18e2:	4f5c                	lw	a5,28(a4)
    18e4:	8d5d                	or	a0,a0,a5
    18e6:	cf48                	sw	a0,28(a4)
    18e8:	8082                	ret
    18ea:	400217b7          	lui	a5,0x40021
    18ee:	4fd8                	lw	a4,28(a5)
    18f0:	fff54513          	not	a0,a0
    18f4:	8d79                	and	a0,a0,a4
    18f6:	cfc8                	sw	a0,28(a5)
    18f8:	8082                	ret

000018fa <TIM_TimeBaseInit>:
    18fa:	211e                	lhu	a5,0(a0)
    18fc:	40013737          	lui	a4,0x40013
    1900:	c0070713          	addi	a4,a4,-1024 # 40012c00 <__global_pointer$+0x200123b8>
    1904:	07c2                	slli	a5,a5,0x10
    1906:	83c1                	srli	a5,a5,0x10
    1908:	00e50663          	beq	a0,a4,1914 <TIM_TimeBaseInit+0x1a>
    190c:	40000737          	lui	a4,0x40000
    1910:	00e51663          	bne	a0,a4,191c <TIM_TimeBaseInit+0x22>
    1914:	21ba                	lhu	a4,2(a1)
    1916:	f8f7f793          	andi	a5,a5,-113
    191a:	8fd9                	or	a5,a5,a4
    191c:	21fa                	lhu	a4,6(a1)
    191e:	cff7f793          	andi	a5,a5,-769
    1922:	07c2                	slli	a5,a5,0x10
    1924:	83c1                	srli	a5,a5,0x10
    1926:	8fd9                	or	a5,a5,a4
    1928:	a11e                	sh	a5,0(a0)
    192a:	21de                	lhu	a5,4(a1)
    192c:	b55e                	sh	a5,44(a0)
    192e:	219e                	lhu	a5,0(a1)
    1930:	b51e                	sh	a5,40(a0)
    1932:	400137b7          	lui	a5,0x40013
    1936:	c0078793          	addi	a5,a5,-1024 # 40012c00 <__global_pointer$+0x200123b8>
    193a:	00f51463          	bne	a0,a5,1942 <TIM_TimeBaseInit+0x48>
    193e:	259c                	lbu	a5,8(a1)
    1940:	b91e                	sh	a5,48(a0)
    1942:	4785                	li	a5,1
    1944:	a95e                	sh	a5,20(a0)
    1946:	8082                	ret

00001948 <TIM_OC2Init>:
    1948:	311e                	lhu	a5,32(a0)
    194a:	7765                	lui	a4,0xffff9
    194c:	cff70713          	addi	a4,a4,-769 # ffff8cff <__global_pointer$+0xdfff84b7>
    1950:	07c2                	slli	a5,a5,0x10
    1952:	83c1                	srli	a5,a5,0x10
    1954:	9bbd                	andi	a5,a5,-17
    1956:	07c2                	slli	a5,a5,0x10
    1958:	83c1                	srli	a5,a5,0x10
    195a:	b11e                	sh	a5,32(a0)
    195c:	311e                	lhu	a5,32(a0)
    195e:	2156                	lhu	a3,4(a0)
    1960:	0085d303          	lhu	t1,8(a1)
    1964:	07c2                	slli	a5,a5,0x10
    1966:	01069613          	slli	a2,a3,0x10
    196a:	2d16                	lhu	a3,24(a0)
    196c:	83c1                	srli	a5,a5,0x10
    196e:	fdf7f793          	andi	a5,a5,-33
    1972:	8f75                	and	a4,a4,a3
    1974:	2196                	lhu	a3,0(a1)
    1976:	8241                	srli	a2,a2,0x10
    1978:	06a2                	slli	a3,a3,0x8
    197a:	8f55                	or	a4,a4,a3
    197c:	21b6                	lhu	a3,2(a1)
    197e:	0742                	slli	a4,a4,0x10
    1980:	8341                	srli	a4,a4,0x10
    1982:	0066e6b3          	or	a3,a3,t1
    1986:	0692                	slli	a3,a3,0x4
    1988:	8fd5                	or	a5,a5,a3
    198a:	400136b7          	lui	a3,0x40013
    198e:	07c2                	slli	a5,a5,0x10
    1990:	c0068693          	addi	a3,a3,-1024 # 40012c00 <__global_pointer$+0x200123b8>
    1994:	83c1                	srli	a5,a5,0x10
    1996:	02d51e63          	bne	a0,a3,19d2 <TIM_OC2Init+0x8a>
    199a:	25b6                	lhu	a3,10(a1)
    199c:	f7f7f793          	andi	a5,a5,-129
    19a0:	00c5d303          	lhu	t1,12(a1)
    19a4:	0692                	slli	a3,a3,0x4
    19a6:	8fd5                	or	a5,a5,a3
    19a8:	21d6                	lhu	a3,4(a1)
    19aa:	07c2                	slli	a5,a5,0x10
    19ac:	83c1                	srli	a5,a5,0x10
    19ae:	0692                	slli	a3,a3,0x4
    19b0:	fbf7f793          	andi	a5,a5,-65
    19b4:	8fd5                	or	a5,a5,a3
    19b6:	76fd                	lui	a3,0xfffff
    19b8:	3ff68693          	addi	a3,a3,1023 # fffff3ff <__global_pointer$+0xdfffebb7>
    19bc:	8ef1                	and	a3,a3,a2
    19be:	25f2                	lhu	a2,14(a1)
    19c0:	07c2                	slli	a5,a5,0x10
    19c2:	83c1                	srli	a5,a5,0x10
    19c4:	00666633          	or	a2,a2,t1
    19c8:	060a                	slli	a2,a2,0x2
    19ca:	8ed1                	or	a3,a3,a2
    19cc:	01069613          	slli	a2,a3,0x10
    19d0:	8241                	srli	a2,a2,0x10
    19d2:	a152                	sh	a2,4(a0)
    19d4:	ad1a                	sh	a4,24(a0)
    19d6:	21fa                	lhu	a4,6(a1)
    19d8:	dd18                	sw	a4,56(a0)
    19da:	b11e                	sh	a5,32(a0)
    19dc:	8082                	ret

000019de <TIM_Cmd>:
    19de:	211e                	lhu	a5,0(a0)
    19e0:	c589                	beqz	a1,19ea <TIM_Cmd+0xc>
    19e2:	0017e793          	ori	a5,a5,1
    19e6:	a11e                	sh	a5,0(a0)
    19e8:	8082                	ret
    19ea:	07c2                	slli	a5,a5,0x10
    19ec:	83c1                	srli	a5,a5,0x10
    19ee:	9bf9                	andi	a5,a5,-2
    19f0:	07c2                	slli	a5,a5,0x10
    19f2:	83c1                	srli	a5,a5,0x10
    19f4:	bfcd                	j	19e6 <TIM_Cmd+0x8>

000019f6 <TIM_CtrlPWMOutputs>:
    19f6:	04455783          	lhu	a5,68(a0)
    19fa:	c591                	beqz	a1,1a06 <TIM_CtrlPWMOutputs+0x10>
    19fc:	6721                	lui	a4,0x8
    19fe:	8fd9                	or	a5,a5,a4
    1a00:	04f51223          	sh	a5,68(a0)
    1a04:	8082                	ret
    1a06:	07c6                	slli	a5,a5,0x11
    1a08:	83c5                	srli	a5,a5,0x11
    1a0a:	bfdd                	j	1a00 <TIM_CtrlPWMOutputs+0xa>

00001a0c <TIM_ARRPreloadConfig>:
    1a0c:	211e                	lhu	a5,0(a0)
    1a0e:	c589                	beqz	a1,1a18 <TIM_ARRPreloadConfig+0xc>
    1a10:	0807e793          	ori	a5,a5,128
    1a14:	a11e                	sh	a5,0(a0)
    1a16:	8082                	ret
    1a18:	07c2                	slli	a5,a5,0x10
    1a1a:	83c1                	srli	a5,a5,0x10
    1a1c:	f7f7f793          	andi	a5,a5,-129
    1a20:	07c2                	slli	a5,a5,0x10
    1a22:	83c1                	srli	a5,a5,0x10
    1a24:	bfc5                	j	1a14 <TIM_ARRPreloadConfig+0x8>

00001a26 <TIM_OC2PreloadConfig>:
    1a26:	2d1a                	lhu	a4,24(a0)
    1a28:	77fd                	lui	a5,0xfffff
    1a2a:	7ff78793          	addi	a5,a5,2047 # fffff7ff <__global_pointer$+0xdfffefb7>
    1a2e:	8ff9                	and	a5,a5,a4
    1a30:	05a2                	slli	a1,a1,0x8
    1a32:	8fcd                	or	a5,a5,a1
    1a34:	07c2                	slli	a5,a5,0x10
    1a36:	83c1                	srli	a5,a5,0x10
    1a38:	ad1e                	sh	a5,24(a0)
    1a3a:	8082                	ret

00001a3c <TIM_SetCompare2>:
    1a3c:	dd0c                	sw	a1,56(a0)
    1a3e:	8082                	ret

00001a40 <USART_Init>:
    1a40:	e6cfe2ef          	jal	t0,ac <__riscv_save_0>
    1a44:	2916                	lhu	a3,16(a0)
    1a46:	77f5                	lui	a5,0xffffd
    1a48:	17fd                	addi	a5,a5,-1
    1a4a:	8ff5                	and	a5,a5,a3
    1a4c:	21f6                	lhu	a3,6(a1)
    1a4e:	25da                	lhu	a4,12(a1)
    1a50:	1121                	addi	sp,sp,-24
    1a52:	8fd5                	or	a5,a5,a3
    1a54:	a91e                	sh	a5,16(a0)
    1a56:	2556                	lhu	a3,12(a0)
    1a58:	77fd                	lui	a5,0xfffff
    1a5a:	9f378793          	addi	a5,a5,-1549 # ffffe9f3 <__global_pointer$+0xdfffe1ab>
    1a5e:	8ff5                	and	a5,a5,a3
    1a60:	21d6                	lhu	a3,4(a1)
    1a62:	842a                	mv	s0,a0
    1a64:	c02e                	sw	a1,0(sp)
    1a66:	8fd5                	or	a5,a5,a3
    1a68:	2596                	lhu	a3,8(a1)
    1a6a:	8fd5                	or	a5,a5,a3
    1a6c:	25b6                	lhu	a3,10(a1)
    1a6e:	8fd5                	or	a5,a5,a3
    1a70:	a55e                	sh	a5,12(a0)
    1a72:	295e                	lhu	a5,20(a0)
    1a74:	07c2                	slli	a5,a5,0x10
    1a76:	83c1                	srli	a5,a5,0x10
    1a78:	cff7f793          	andi	a5,a5,-769
    1a7c:	8f5d                	or	a4,a4,a5
    1a7e:	a95a                	sh	a4,20(a0)
    1a80:	0048                	addi	a0,sp,4
    1a82:	d9bff0ef          	jal	ra,181c <RCC_GetClocksFreq>
    1a86:	400147b7          	lui	a5,0x40014
    1a8a:	80078793          	addi	a5,a5,-2048 # 40013800 <__global_pointer$+0x20012fb8>
    1a8e:	4582                	lw	a1,0(sp)
    1a90:	06f41263          	bne	s0,a5,1af4 <USART_Init+0xb4>
    1a94:	47c2                	lw	a5,16(sp)
    1a96:	245a                	lhu	a4,12(s0)
    1a98:	00179513          	slli	a0,a5,0x1
    1a9c:	953e                	add	a0,a0,a5
    1a9e:	0742                	slli	a4,a4,0x10
    1aa0:	050e                	slli	a0,a0,0x3
    1aa2:	8741                	srai	a4,a4,0x10
    1aa4:	953e                	add	a0,a0,a5
    1aa6:	418c                	lw	a1,0(a1)
    1aa8:	04075863          	bgez	a4,1af8 <USART_Init+0xb8>
    1aac:	0586                	slli	a1,a1,0x1
    1aae:	e32fe0ef          	jal	ra,e0 <__udivsi3>
    1ab2:	06400593          	li	a1,100
    1ab6:	c02a                	sw	a0,0(sp)
    1ab8:	e28fe0ef          	jal	ra,e0 <__udivsi3>
    1abc:	4782                	lw	a5,0(sp)
    1abe:	00451493          	slli	s1,a0,0x4
    1ac2:	06400593          	li	a1,100
    1ac6:	853e                	mv	a0,a5
    1ac8:	e44fe0ef          	jal	ra,10c <__umodsi3>
    1acc:	245e                	lhu	a5,12(s0)
    1ace:	07c2                	slli	a5,a5,0x10
    1ad0:	87c1                	srai	a5,a5,0x10
    1ad2:	0207d563          	bgez	a5,1afc <USART_Init+0xbc>
    1ad6:	050e                	slli	a0,a0,0x3
    1ad8:	06400593          	li	a1,100
    1adc:	03250513          	addi	a0,a0,50
    1ae0:	e00fe0ef          	jal	ra,e0 <__udivsi3>
    1ae4:	891d                	andi	a0,a0,7
    1ae6:	8cc9                	or	s1,s1,a0
    1ae8:	04c2                	slli	s1,s1,0x10
    1aea:	80c1                	srli	s1,s1,0x10
    1aec:	a406                	sh	s1,8(s0)
    1aee:	0161                	addi	sp,sp,24
    1af0:	dc6fe06f          	j	b6 <__riscv_restore_0>
    1af4:	47b2                	lw	a5,12(sp)
    1af6:	b745                	j	1a96 <USART_Init+0x56>
    1af8:	058a                	slli	a1,a1,0x2
    1afa:	bf55                	j	1aae <USART_Init+0x6e>
    1afc:	0512                	slli	a0,a0,0x4
    1afe:	06400593          	li	a1,100
    1b02:	03250513          	addi	a0,a0,50
    1b06:	ddafe0ef          	jal	ra,e0 <__udivsi3>
    1b0a:	893d                	andi	a0,a0,15
    1b0c:	bfe9                	j	1ae6 <USART_Init+0xa6>

00001b0e <USART_Cmd>:
    1b0e:	c591                	beqz	a1,1b1a <USART_Cmd+0xc>
    1b10:	255e                	lhu	a5,12(a0)
    1b12:	6709                	lui	a4,0x2
    1b14:	8fd9                	or	a5,a5,a4
    1b16:	a55e                	sh	a5,12(a0)
    1b18:	8082                	ret
    1b1a:	255a                	lhu	a4,12(a0)
    1b1c:	77f9                	lui	a5,0xffffe
    1b1e:	17fd                	addi	a5,a5,-1
    1b20:	8ff9                	and	a5,a5,a4
    1b22:	bfd5                	j	1b16 <USART_Cmd+0x8>

00001b24 <USART_SendData>:
    1b24:	1ff5f593          	andi	a1,a1,511
    1b28:	a14e                	sh	a1,4(a0)
    1b2a:	8082                	ret

00001b2c <USART_GetFlagStatus>:
    1b2c:	210a                	lhu	a0,0(a0)
    1b2e:	8d6d                	and	a0,a0,a1
    1b30:	00a03533          	snez	a0,a0
    1b34:	8082                	ret

00001b36 <delay>:
    1b36:	e000f737          	lui	a4,0xe000f
    1b3a:	4354                	lw	a3,4(a4)
    1b3c:	1131                	addi	sp,sp,-20
    1b3e:	00710793          	addi	a5,sp,7
    1b42:	9af9                	andi	a3,a3,-2
    1b44:	c354                	sw	a3,4(a4)
    1b46:	3e700693          	li	a3,999
    1b4a:	cb14                	sw	a3,16(a4)
    1b4c:	00072423          	sw	zero,8(a4) # e000f008 <__global_pointer$+0xc000e7c0>
    1b50:	46ad                	li	a3,11
    1b52:	c314                	sw	a3,0(a4)
    1b54:	20000737          	lui	a4,0x20000
    1b58:	04870693          	addi	a3,a4,72 # 20000048 <_edata>
    1b5c:	4290                	lw	a2,0(a3)
    1b5e:	42d4                	lw	a3,4(a3)
    1b60:	9be1                	andi	a5,a5,-8
    1b62:	c790                	sw	a2,8(a5)
    1b64:	c7d4                	sw	a3,12(a5)
    1b66:	478c                	lw	a1,8(a5)
    1b68:	47d0                	lw	a2,12(a5)
    1b6a:	41f55693          	srai	a3,a0,0x1f
    1b6e:	00b50333          	add	t1,a0,a1
    1b72:	00a33533          	sltu	a0,t1,a0
    1b76:	00c685b3          	add	a1,a3,a2
    1b7a:	00b506b3          	add	a3,a0,a1
    1b7e:	0067a023          	sw	t1,0(a5) # ffffe000 <__global_pointer$+0xdfffd7b8>
    1b82:	c3d4                	sw	a3,4(a5)
    1b84:	04870713          	addi	a4,a4,72
    1b88:	0007a303          	lw	t1,0(a5)
    1b8c:	4348                	lw	a0,4(a4)
    1b8e:	0047a383          	lw	t2,4(a5)
    1b92:	00a3e763          	bltu	t2,a0,1ba0 <delay+0x6a>
    1b96:	00751763          	bne	a0,t2,1ba4 <delay+0x6e>
    1b9a:	4314                	lw	a3,0(a4)
    1b9c:	00d37463          	bgeu	t1,a3,1ba4 <delay+0x6e>
    1ba0:	0151                	addi	sp,sp,20
    1ba2:	8082                	ret
    1ba4:	0001                	nop
    1ba6:	b7cd                	j	1b88 <delay+0x52>

00001ba8 <Delay_Init>:
    1ba8:	d04fe2ef          	jal	t0,ac <__riscv_save_0>
    1bac:	200007b7          	lui	a5,0x20000
    1bb0:	0207a503          	lw	a0,32(a5) # 20000020 <SystemCoreClock>
    1bb4:	007a15b7          	lui	a1,0x7a1
    1bb8:	20058593          	addi	a1,a1,512 # 7a1200 <_data_lma+0x79df08>
    1bbc:	d24fe0ef          	jal	ra,e0 <__udivsi3>
    1bc0:	0ff57513          	andi	a0,a0,255
    1bc4:	86a18d23          	sb	a0,-1926(gp) # 200000c2 <p_us>
    1bc8:	00551793          	slli	a5,a0,0x5
    1bcc:	8f89                	sub	a5,a5,a0
    1bce:	078a                	slli	a5,a5,0x2
    1bd0:	953e                	add	a0,a0,a5
    1bd2:	050e                	slli	a0,a0,0x3
    1bd4:	86a19c23          	sh	a0,-1928(gp) # 200000c0 <p_ms>
    1bd8:	cdefe06f          	j	b6 <__riscv_restore_0>

00001bdc <Delay_Ms>:
    1bdc:	cd0fe2ef          	jal	t0,ac <__riscv_save_0>
    1be0:	e000f437          	lui	s0,0xe000f
    1be4:	405c                	lw	a5,4(s0)
    1be6:	85aa                	mv	a1,a0
    1be8:	9bf9                	andi	a5,a5,-2
    1bea:	c05c                	sw	a5,4(s0)
    1bec:	8781d503          	lhu	a0,-1928(gp) # 200000c0 <p_ms>
    1bf0:	cd0fe0ef          	jal	ra,c0 <__mulsi3>
    1bf4:	c808                	sw	a0,16(s0)
    1bf6:	00042423          	sw	zero,8(s0) # e000f008 <__global_pointer$+0xc000e7c0>
    1bfa:	401c                	lw	a5,0(s0)
    1bfc:	0017e793          	ori	a5,a5,1
    1c00:	c01c                	sw	a5,0(s0)
    1c02:	e000f7b7          	lui	a5,0xe000f
    1c06:	43d8                	lw	a4,4(a5)
    1c08:	8b05                	andi	a4,a4,1
    1c0a:	df75                	beqz	a4,1c06 <Delay_Ms+0x2a>
    1c0c:	4398                	lw	a4,0(a5)
    1c0e:	9b79                	andi	a4,a4,-2
    1c10:	c398                	sw	a4,0(a5)
    1c12:	ca4fe06f          	j	b6 <__riscv_restore_0>

00001c16 <USART_Printf_Init>:
    1c16:	c96fe2ef          	jal	t0,ac <__riscv_save_0>
    1c1a:	842a                	mv	s0,a0
    1c1c:	6511                	lui	a0,0x4
    1c1e:	1111                	addi	sp,sp,-28
    1c20:	4585                	li	a1,1
    1c22:	02150513          	addi	a0,a0,33 # 4021 <_data_lma+0xd29>
    1c26:	c99ff0ef          	jal	ra,18be <RCC_APB2PeriphClockCmd>
    1c2a:	4585                	li	a1,1
    1c2c:	80200537          	lui	a0,0x80200
    1c30:	9fbff0ef          	jal	ra,162a <GPIO_PinRemapConfig>
    1c34:	04000793          	li	a5,64
    1c38:	807c                	sh	a5,0(sp)
    1c3a:	40011537          	lui	a0,0x40011
    1c3e:	478d                	li	a5,3
    1c40:	c23e                	sw	a5,4(sp)
    1c42:	858a                	mv	a1,sp
    1c44:	47e1                	li	a5,24
    1c46:	40050513          	addi	a0,a0,1024 # 40011400 <__global_pointer$+0x20010bb8>
    1c4a:	c43e                	sw	a5,8(sp)
    1c4c:	94fff0ef          	jal	ra,159a <GPIO_Init>
    1c50:	c622                	sw	s0,12(sp)
    1c52:	40014437          	lui	s0,0x40014
    1c56:	000807b7          	lui	a5,0x80
    1c5a:	006c                	addi	a1,sp,12
    1c5c:	80040513          	addi	a0,s0,-2048 # 40013800 <__global_pointer$+0x20012fb8>
    1c60:	ca3e                	sw	a5,20(sp)
    1c62:	c802                	sw	zero,16(sp)
    1c64:	00011c23          	sh	zero,24(sp)
    1c68:	dd9ff0ef          	jal	ra,1a40 <USART_Init>
    1c6c:	4585                	li	a1,1
    1c6e:	80040513          	addi	a0,s0,-2048
    1c72:	3d71                	jal	1b0e <USART_Cmd>
    1c74:	0171                	addi	sp,sp,28
    1c76:	c40fe06f          	j	b6 <__riscv_restore_0>

00001c7a <_write>:
    1c7a:	c32fe2ef          	jal	t0,ac <__riscv_save_0>
    1c7e:	1171                	addi	sp,sp,-4
    1c80:	84ae                	mv	s1,a1
    1c82:	4401                	li	s0,0
    1c84:	02c45f63          	bge	s0,a2,1cc2 <_write+0x48>
    1c88:	400147b7          	lui	a5,0x40014
    1c8c:	80078713          	addi	a4,a5,-2048 # 40013800 <__global_pointer$+0x20012fb8>
    1c90:	853a                	mv	a0,a4
    1c92:	04000593          	li	a1,64
    1c96:	c032                	sw	a2,0(sp)
    1c98:	e95ff0ef          	jal	ra,1b2c <USART_GetFlagStatus>
    1c9c:	400147b7          	lui	a5,0x40014
    1ca0:	80078713          	addi	a4,a5,-2048 # 40013800 <__global_pointer$+0x20012fb8>
    1ca4:	4602                	lw	a2,0(sp)
    1ca6:	d56d                	beqz	a0,1c90 <_write+0x16>
    1ca8:	00848733          	add	a4,s1,s0
    1cac:	00070583          	lb	a1,0(a4)
    1cb0:	80078513          	addi	a0,a5,-2048
    1cb4:	0405                	addi	s0,s0,1
    1cb6:	05c2                	slli	a1,a1,0x10
    1cb8:	81c1                	srli	a1,a1,0x10
    1cba:	e6bff0ef          	jal	ra,1b24 <USART_SendData>
    1cbe:	4602                	lw	a2,0(sp)
    1cc0:	b7d1                	j	1c84 <_write+0xa>
    1cc2:	8532                	mv	a0,a2
    1cc4:	0111                	addi	sp,sp,4
    1cc6:	bf0fe06f          	j	b6 <__riscv_restore_0>

00001cca <printchar>:
    1cca:	1141                	addi	sp,sp,-16
    1ccc:	c606                	sw	ra,12(sp)
    1cce:	c02e                	sw	a1,0(sp)
    1cd0:	cd0d                	beqz	a0,1d0a <printchar+0x40>
    1cd2:	4118                	lw	a4,0(a0)
    1cd4:	87aa                	mv	a5,a0
    1cd6:	c305                	beqz	a4,1cf6 <printchar+0x2c>
    1cd8:	4158                	lw	a4,4(a0)
    1cda:	557d                	li	a0,-1
    1cdc:	cb11                	beqz	a4,1cf0 <printchar+0x26>
    1cde:	4685                	li	a3,1
    1ce0:	00d71b63          	bne	a4,a3,1cf6 <printchar+0x2c>
    1ce4:	4798                	lw	a4,8(a5)
    1ce6:	00070023          	sb	zero,0(a4)
    1cea:	0007a223          	sw	zero,4(a5)
    1cee:	4505                	li	a0,1
    1cf0:	40b2                	lw	ra,12(sp)
    1cf2:	0141                	addi	sp,sp,16
    1cf4:	8082                	ret
    1cf6:	4798                	lw	a4,8(a5)
    1cf8:	4682                	lw	a3,0(sp)
    1cfa:	a314                	sb	a3,0(a4)
    1cfc:	4798                	lw	a4,8(a5)
    1cfe:	0705                	addi	a4,a4,1
    1d00:	c798                	sw	a4,8(a5)
    1d02:	43d8                	lw	a4,4(a5)
    1d04:	177d                	addi	a4,a4,-1
    1d06:	c3d8                	sw	a4,4(a5)
    1d08:	b7dd                	j	1cee <printchar+0x24>
    1d0a:	4605                	li	a2,1
    1d0c:	858a                	mv	a1,sp
    1d0e:	37b5                	jal	1c7a <_write>
    1d10:	bff9                	j	1cee <printchar+0x24>

00001d12 <prints>:
    1d12:	1101                	addi	sp,sp,-32
    1d14:	cc22                	sw	s0,24(sp)
    1d16:	c22e                	sw	a1,4(sp)
    1d18:	ce06                	sw	ra,28(sp)
    1d1a:	ca26                	sw	s1,20(sp)
    1d1c:	842a                	mv	s0,a0
    1d1e:	4781                	li	a5,0
    1d20:	02000593          	li	a1,32
    1d24:	02064563          	bltz	a2,1d4e <prints+0x3c>
    1d28:	4592                	lw	a1,4(sp)
    1d2a:	95be                	add	a1,a1,a5
    1d2c:	00058583          	lb	a1,0(a1)
    1d30:	e58d                	bnez	a1,1d5a <prints+0x48>
    1d32:	02c7d863          	bge	a5,a2,1d62 <prints+0x50>
    1d36:	02e7d463          	bge	a5,a4,1d5e <prints+0x4c>
    1d3a:	8e19                	sub	a2,a2,a4
    1d3c:	02000513          	li	a0,32
    1d40:	0026f593          	andi	a1,a3,2
    1d44:	c02a                	sw	a0,0(sp)
    1d46:	c589                	beqz	a1,1d50 <prints+0x3e>
    1d48:	e701                	bnez	a4,1d50 <prints+0x3e>
    1d4a:	03000593          	li	a1,48
    1d4e:	c02e                	sw	a1,0(sp)
    1d50:	8a85                	andi	a3,a3,1
    1d52:	4481                	li	s1,0
    1d54:	ea95                	bnez	a3,1d88 <prints+0x76>
    1d56:	84b2                	mv	s1,a2
    1d58:	a00d                	j	1d7a <prints+0x68>
    1d5a:	0785                	addi	a5,a5,1
    1d5c:	b7f1                	j	1d28 <prints+0x16>
    1d5e:	8e1d                	sub	a2,a2,a5
    1d60:	bff1                	j	1d3c <prints+0x2a>
    1d62:	4601                	li	a2,0
    1d64:	bfe1                	j	1d3c <prints+0x2a>
    1d66:	4582                	lw	a1,0(sp)
    1d68:	8522                	mv	a0,s0
    1d6a:	c83a                	sw	a4,16(sp)
    1d6c:	c632                	sw	a2,12(sp)
    1d6e:	c43e                	sw	a5,8(sp)
    1d70:	3fa9                	jal	1cca <printchar>
    1d72:	47a2                	lw	a5,8(sp)
    1d74:	4632                	lw	a2,12(sp)
    1d76:	4742                	lw	a4,16(sp)
    1d78:	14fd                	addi	s1,s1,-1
    1d7a:	fe9046e3          	bgtz	s1,1d66 <prints+0x54>
    1d7e:	84b2                	mv	s1,a2
    1d80:	00065363          	bgez	a2,1d86 <prints+0x74>
    1d84:	4481                	li	s1,0
    1d86:	8e05                	sub	a2,a2,s1
    1d88:	02e7c763          	blt	a5,a4,1db6 <prints+0xa4>
    1d8c:	87a6                	mv	a5,s1
    1d8e:	4692                	lw	a3,4(sp)
    1d90:	40978733          	sub	a4,a5,s1
    1d94:	9736                	add	a4,a4,a3
    1d96:	00070583          	lb	a1,0(a4)
    1d9a:	ed95                	bnez	a1,1dd6 <prints+0xc4>
    1d9c:	84b2                	mv	s1,a2
    1d9e:	04904463          	bgtz	s1,1de6 <prints+0xd4>
    1da2:	00065363          	bgez	a2,1da8 <prints+0x96>
    1da6:	4601                	li	a2,0
    1da8:	40f2                	lw	ra,28(sp)
    1daa:	4462                	lw	s0,24(sp)
    1dac:	44d2                	lw	s1,20(sp)
    1dae:	00f60533          	add	a0,a2,a5
    1db2:	6105                	addi	sp,sp,32
    1db4:	8082                	ret
    1db6:	8f1d                	sub	a4,a4,a5
    1db8:	87ba                	mv	a5,a4
    1dba:	03000593          	li	a1,48
    1dbe:	8522                	mv	a0,s0
    1dc0:	c832                	sw	a2,16(sp)
    1dc2:	c63e                	sw	a5,12(sp)
    1dc4:	c43a                	sw	a4,8(sp)
    1dc6:	3711                	jal	1cca <printchar>
    1dc8:	47b2                	lw	a5,12(sp)
    1dca:	4722                	lw	a4,8(sp)
    1dcc:	4642                	lw	a2,16(sp)
    1dce:	17fd                	addi	a5,a5,-1
    1dd0:	f7ed                	bnez	a5,1dba <prints+0xa8>
    1dd2:	94ba                	add	s1,s1,a4
    1dd4:	bf65                	j	1d8c <prints+0x7a>
    1dd6:	8522                	mv	a0,s0
    1dd8:	c632                	sw	a2,12(sp)
    1dda:	c43e                	sw	a5,8(sp)
    1ddc:	35fd                	jal	1cca <printchar>
    1dde:	47a2                	lw	a5,8(sp)
    1de0:	4632                	lw	a2,12(sp)
    1de2:	0785                	addi	a5,a5,1
    1de4:	b76d                	j	1d8e <prints+0x7c>
    1de6:	4582                	lw	a1,0(sp)
    1de8:	8522                	mv	a0,s0
    1dea:	c432                	sw	a2,8(sp)
    1dec:	c23e                	sw	a5,4(sp)
    1dee:	3df1                	jal	1cca <printchar>
    1df0:	14fd                	addi	s1,s1,-1
    1df2:	4622                	lw	a2,8(sp)
    1df4:	4792                	lw	a5,4(sp)
    1df6:	b765                	j	1d9e <prints+0x8c>

00001df8 <printInt>:
    1df8:	7139                	addi	sp,sp,-64
    1dfa:	de06                	sw	ra,60(sp)
    1dfc:	dc22                	sw	s0,56(sp)
    1dfe:	da26                	sw	s1,52(sp)
    1e00:	c23e                	sw	a5,4(sp)
    1e02:	8332                	mv	t1,a2
    1e04:	863a                	mv	a2,a4
    1e06:	ed89                	bnez	a1,1e20 <printInt+0x28>
    1e08:	4692                	lw	a3,4(sp)
    1e0a:	03000793          	li	a5,48
    1e0e:	4701                	li	a4,0
    1e10:	086c                	addi	a1,sp,28
    1e12:	86fc                	sh	a5,28(sp)
    1e14:	3dfd                	jal	1d12 <prints>
    1e16:	50f2                	lw	ra,60(sp)
    1e18:	5462                	lw	s0,56(sp)
    1e1a:	54d2                	lw	s1,52(sp)
    1e1c:	6121                	addi	sp,sp,64
    1e1e:	8082                	ret
    1e20:	84aa                	mv	s1,a0
    1e22:	8436                	mv	s0,a3
    1e24:	87ae                	mv	a5,a1
    1e26:	ca91                	beqz	a3,1e3a <printInt+0x42>
    1e28:	4729                	li	a4,10
    1e2a:	4401                	li	s0,0
    1e2c:	00e31763          	bne	t1,a4,1e3a <printInt+0x42>
    1e30:	0005d563          	bgez	a1,1e3a <printInt+0x42>
    1e34:	40b007b3          	neg	a5,a1
    1e38:	4405                	li	s0,1
    1e3a:	4686                	lw	a3,64(sp)
    1e3c:	020109a3          	sb	zero,51(sp)
    1e40:	03310713          	addi	a4,sp,51
    1e44:	fc668693          	addi	a3,a3,-58
    1e48:	c436                	sw	a3,8(sp)
    1e4a:	859a                	mv	a1,t1
    1e4c:	853e                	mv	a0,a5
    1e4e:	ca32                	sw	a2,20(sp)
    1e50:	c83a                	sw	a4,16(sp)
    1e52:	c61a                	sw	t1,12(sp)
    1e54:	c03e                	sw	a5,0(sp)
    1e56:	ab6fe0ef          	jal	ra,10c <__umodsi3>
    1e5a:	46a5                	li	a3,9
    1e5c:	4782                	lw	a5,0(sp)
    1e5e:	4332                	lw	t1,12(sp)
    1e60:	4742                	lw	a4,16(sp)
    1e62:	4652                	lw	a2,20(sp)
    1e64:	00a6d463          	bge	a3,a0,1e6c <printInt+0x74>
    1e68:	46a2                	lw	a3,8(sp)
    1e6a:	9536                	add	a0,a0,a3
    1e6c:	03050513          	addi	a0,a0,48
    1e70:	fff70693          	addi	a3,a4,-1
    1e74:	fea70fa3          	sb	a0,-1(a4)
    1e78:	859a                	mv	a1,t1
    1e7a:	853e                	mv	a0,a5
    1e7c:	cc32                	sw	a2,24(sp)
    1e7e:	ca3a                	sw	a4,20(sp)
    1e80:	c81a                	sw	t1,16(sp)
    1e82:	c63e                	sw	a5,12(sp)
    1e84:	c036                	sw	a3,0(sp)
    1e86:	a5afe0ef          	jal	ra,e0 <__udivsi3>
    1e8a:	47b2                	lw	a5,12(sp)
    1e8c:	4342                	lw	t1,16(sp)
    1e8e:	4752                	lw	a4,20(sp)
    1e90:	4662                	lw	a2,24(sp)
    1e92:	0467fd63          	bgeu	a5,t1,1eec <printInt+0xf4>
    1e96:	cc09                	beqz	s0,1eb0 <printInt+0xb8>
    1e98:	ce29                	beqz	a2,1ef2 <printInt+0xfa>
    1e9a:	4792                	lw	a5,4(sp)
    1e9c:	8b89                	andi	a5,a5,2
    1e9e:	cbb1                	beqz	a5,1ef2 <printInt+0xfa>
    1ea0:	02d00593          	li	a1,45
    1ea4:	8526                	mv	a0,s1
    1ea6:	c432                	sw	a2,8(sp)
    1ea8:	e23ff0ef          	jal	ra,1cca <printchar>
    1eac:	4622                	lw	a2,8(sp)
    1eae:	167d                	addi	a2,a2,-1
    1eb0:	4792                	lw	a5,4(sp)
    1eb2:	8b91                	andi	a5,a5,4
    1eb4:	c785                	beqz	a5,1edc <printInt+0xe4>
    1eb6:	4706                	lw	a4,64(sp)
    1eb8:	06100793          	li	a5,97
    1ebc:	c432                	sw	a2,8(sp)
    1ebe:	03000593          	li	a1,48
    1ec2:	8526                	mv	a0,s1
    1ec4:	04f71163          	bne	a4,a5,1f06 <printInt+0x10e>
    1ec8:	e03ff0ef          	jal	ra,1cca <printchar>
    1ecc:	07800593          	li	a1,120
    1ed0:	8526                	mv	a0,s1
    1ed2:	df9ff0ef          	jal	ra,1cca <printchar>
    1ed6:	4622                	lw	a2,8(sp)
    1ed8:	0409                	addi	s0,s0,2
    1eda:	1679                	addi	a2,a2,-2
    1edc:	4716                	lw	a4,68(sp)
    1ede:	4692                	lw	a3,4(sp)
    1ee0:	4582                	lw	a1,0(sp)
    1ee2:	8526                	mv	a0,s1
    1ee4:	e2fff0ef          	jal	ra,1d12 <prints>
    1ee8:	9522                	add	a0,a0,s0
    1eea:	b735                	j	1e16 <printInt+0x1e>
    1eec:	87aa                	mv	a5,a0
    1eee:	4702                	lw	a4,0(sp)
    1ef0:	bfa9                	j	1e4a <printInt+0x52>
    1ef2:	4682                	lw	a3,0(sp)
    1ef4:	02d00793          	li	a5,45
    1ef8:	4401                	li	s0,0
    1efa:	fef68fa3          	sb	a5,-1(a3)
    1efe:	ffe70793          	addi	a5,a4,-2
    1f02:	c03e                	sw	a5,0(sp)
    1f04:	b775                	j	1eb0 <printInt+0xb8>
    1f06:	dc5ff0ef          	jal	ra,1cca <printchar>
    1f0a:	05800593          	li	a1,88
    1f0e:	b7c9                	j	1ed0 <printInt+0xd8>

00001f10 <printLongLongInt>:
    1f10:	4501                	li	a0,0
    1f12:	8082                	ret

00001f14 <printDouble>:
    1f14:	4501                	li	a0,0
    1f16:	8082                	ret

00001f18 <print>:
    1f18:	fd810113          	addi	sp,sp,-40
    1f1c:	d022                	sw	s0,32(sp)
    1f1e:	ce26                	sw	s1,28(sp)
    1f20:	d206                	sw	ra,36(sp)
    1f22:	c42a                	sw	a0,8(sp)
    1f24:	82ae                	mv	t0,a1
    1f26:	8432                	mv	s0,a2
    1f28:	c602                	sw	zero,12(sp)
    1f2a:	4481                	li	s1,0
    1f2c:	00028583          	lb	a1,0(t0)
    1f30:	ed91                	bnez	a1,1f4c <print+0x34>
    1f32:	47a2                	lw	a5,8(sp)
    1f34:	c789                	beqz	a5,1f3e <print+0x26>
    1f36:	4581                	li	a1,0
    1f38:	853e                	mv	a0,a5
    1f3a:	d91ff0ef          	jal	ra,1cca <printchar>
    1f3e:	5092                	lw	ra,36(sp)
    1f40:	5402                	lw	s0,32(sp)
    1f42:	8526                	mv	a0,s1
    1f44:	44f2                	lw	s1,28(sp)
    1f46:	02810113          	addi	sp,sp,40
    1f4a:	8082                	ret
    1f4c:	02500793          	li	a5,37
    1f50:	00f58963          	beq	a1,a5,1f62 <print+0x4a>
    1f54:	4522                	lw	a0,8(sp)
    1f56:	c816                	sw	t0,16(sp)
    1f58:	0485                	addi	s1,s1,1
    1f5a:	d71ff0ef          	jal	ra,1cca <printchar>
    1f5e:	42c2                	lw	t0,16(sp)
    1f60:	a005                	j	1f80 <print+0x68>
    1f62:	00128783          	lb	a5,1(t0)
    1f66:	00128713          	addi	a4,t0,1
    1f6a:	00b79d63          	bne	a5,a1,1f84 <print+0x6c>
    1f6e:	4522                	lw	a0,8(sp)
    1f70:	02500593          	li	a1,37
    1f74:	c83a                	sw	a4,16(sp)
    1f76:	d55ff0ef          	jal	ra,1cca <printchar>
    1f7a:	4742                	lw	a4,16(sp)
    1f7c:	0485                	addi	s1,s1,1
    1f7e:	82ba                	mv	t0,a4
    1f80:	0285                	addi	t0,t0,1
    1f82:	b76d                	j	1f2c <print+0x14>
    1f84:	d7dd                	beqz	a5,1f32 <print+0x1a>
    1f86:	02b00693          	li	a3,43
    1f8a:	04d78963          	beq	a5,a3,1fdc <print+0xc4>
    1f8e:	00f6c863          	blt	a3,a5,1f9e <print+0x86>
    1f92:	02300693          	li	a3,35
    1f96:	04d78663          	beq	a5,a3,1fe2 <print+0xca>
    1f9a:	4781                	li	a5,0
    1f9c:	a005                	j	1fbc <print+0xa4>
    1f9e:	02d00693          	li	a3,45
    1fa2:	00d78a63          	beq	a5,a3,1fb6 <print+0x9e>
    1fa6:	03000693          	li	a3,48
    1faa:	fed798e3          	bne	a5,a3,1f9a <print+0x82>
    1fae:	00228713          	addi	a4,t0,2
    1fb2:	4789                	li	a5,2
    1fb4:	a021                	j	1fbc <print+0xa4>
    1fb6:	00228713          	addi	a4,t0,2
    1fba:	4785                	li	a5,1
    1fbc:	00070683          	lb	a3,0(a4)
    1fc0:	02b00613          	li	a2,43
    1fc4:	04c68363          	beq	a3,a2,200a <print+0xf2>
    1fc8:	02d64163          	blt	a2,a3,1fea <print+0xd2>
    1fcc:	02300613          	li	a2,35
    1fd0:	02c68b63          	beq	a3,a2,2006 <print+0xee>
    1fd4:	82ba                	mv	t0,a4
    1fd6:	4501                	li	a0,0
    1fd8:	46a5                	li	a3,9
    1fda:	a081                	j	201a <print+0x102>
    1fdc:	00228713          	addi	a4,t0,2
    1fe0:	bf6d                	j	1f9a <print+0x82>
    1fe2:	00228713          	addi	a4,t0,2
    1fe6:	4791                	li	a5,4
    1fe8:	bfd1                	j	1fbc <print+0xa4>
    1fea:	02d00613          	li	a2,45
    1fee:	00c68963          	beq	a3,a2,2000 <print+0xe8>
    1ff2:	03000613          	li	a2,48
    1ff6:	fcc69fe3          	bne	a3,a2,1fd4 <print+0xbc>
    1ffa:	0027e793          	ori	a5,a5,2
    1ffe:	a031                	j	200a <print+0xf2>
    2000:	0705                	addi	a4,a4,1
    2002:	4785                	li	a5,1
    2004:	bfc1                	j	1fd4 <print+0xbc>
    2006:	0047e793          	ori	a5,a5,4
    200a:	0705                	addi	a4,a4,1
    200c:	b7e1                	j	1fd4 <print+0xbc>
    200e:	00251613          	slli	a2,a0,0x2
    2012:	9532                	add	a0,a0,a2
    2014:	0506                	slli	a0,a0,0x1
    2016:	953a                	add	a0,a0,a4
    2018:	0285                	addi	t0,t0,1
    201a:	00028603          	lb	a2,0(t0)
    201e:	fd060713          	addi	a4,a2,-48 # f8ffffd0 <__global_pointer$+0xd8fff788>
    2022:	0ff77593          	andi	a1,a4,255
    2026:	feb6f4e3          	bgeu	a3,a1,200e <print+0xf6>
    202a:	02e00713          	li	a4,46
    202e:	4699                	li	a3,6
    2030:	00e61e63          	bne	a2,a4,204c <print+0x134>
    2034:	0285                	addi	t0,t0,1
    2036:	4681                	li	a3,0
    2038:	45a5                	li	a1,9
    203a:	00028603          	lb	a2,0(t0)
    203e:	fd060613          	addi	a2,a2,-48
    2042:	0ff67713          	andi	a4,a2,255
    2046:	02e5f563          	bgeu	a1,a4,2070 <print+0x158>
    204a:	c636                	sw	a3,12(sp)
    204c:	00028703          	lb	a4,0(t0)
    2050:	06a00613          	li	a2,106
    2054:	0ac70d63          	beq	a4,a2,210e <print+0x1f6>
    2058:	02e64363          	blt	a2,a4,207e <print+0x166>
    205c:	04c00613          	li	a2,76
    2060:	0ac70763          	beq	a4,a2,210e <print+0x1f6>
    2064:	06800613          	li	a2,104
    2068:	08c70c63          	beq	a4,a2,2100 <print+0x1e8>
    206c:	4581                	li	a1,0
    206e:	a82d                	j	20a8 <print+0x190>
    2070:	00269713          	slli	a4,a3,0x2
    2074:	96ba                	add	a3,a3,a4
    2076:	0686                	slli	a3,a3,0x1
    2078:	96b2                	add	a3,a3,a2
    207a:	0285                	addi	t0,t0,1
    207c:	bf7d                	j	203a <print+0x122>
    207e:	07400613          	li	a2,116
    2082:	08c70663          	beq	a4,a2,210e <print+0x1f6>
    2086:	07a00613          	li	a2,122
    208a:	08c70263          	beq	a4,a2,210e <print+0x1f6>
    208e:	06c00613          	li	a2,108
    2092:	4581                	li	a1,0
    2094:	00c71a63          	bne	a4,a2,20a8 <print+0x190>
    2098:	00128603          	lb	a2,1(t0)
    209c:	458d                	li	a1,3
    209e:	00e61463          	bne	a2,a4,20a6 <print+0x18e>
    20a2:	0285                	addi	t0,t0,1
    20a4:	4591                	li	a1,4
    20a6:	0285                	addi	t0,t0,1
    20a8:	00028603          	lb	a2,0(t0)
    20ac:	06000393          	li	t2,96
    20b0:	06100713          	li	a4,97
    20b4:	00c3c463          	blt	t2,a2,20bc <print+0x1a4>
    20b8:	04100713          	li	a4,65
    20bc:	06700393          	li	t2,103
    20c0:	06c3c463          	blt	t2,a2,2128 <print+0x210>
    20c4:	06500393          	li	t2,101
    20c8:	18765663          	bge	a2,t2,2254 <print+0x33c>
    20cc:	04700393          	li	t2,71
    20d0:	04c3c163          	blt	t2,a2,2112 <print+0x1fa>
    20d4:	04500593          	li	a1,69
    20d8:	16b65e63          	bge	a2,a1,2254 <print+0x33c>
    20dc:	04300713          	li	a4,67
    20e0:	eae610e3          	bne	a2,a4,1f80 <print+0x68>
    20e4:	4018                	lw	a4,0(s0)
    20e6:	00440393          	addi	t2,s0,4
    20ea:	ca16                	sw	t0,20(sp)
    20ec:	00e10c23          	sb	a4,24(sp)
    20f0:	c81e                	sw	t2,16(sp)
    20f2:	00010ca3          	sb	zero,25(sp)
    20f6:	4701                	li	a4,0
    20f8:	86be                	mv	a3,a5
    20fa:	862a                	mv	a2,a0
    20fc:	082c                	addi	a1,sp,24
    20fe:	a849                	j	2190 <print+0x278>
    2100:	00128603          	lb	a2,1(t0)
    2104:	4581                	li	a1,0
    2106:	fae611e3          	bne	a2,a4,20a8 <print+0x190>
    210a:	0289                	addi	t0,t0,2
    210c:	bf71                	j	20a8 <print+0x190>
    210e:	0285                	addi	t0,t0,1
    2110:	bfb1                	j	206c <print+0x154>
    2112:	06300693          	li	a3,99
    2116:	fcd607e3          	beq	a2,a3,20e4 <print+0x1cc>
    211a:	06c6cf63          	blt	a3,a2,2198 <print+0x280>
    211e:	05800693          	li	a3,88
    2122:	02d60363          	beq	a2,a3,2148 <print+0x230>
    2126:	bda9                	j	1f80 <print+0x68>
    2128:	07300693          	li	a3,115
    212c:	04d60463          	beq	a2,a3,2174 <print+0x25c>
    2130:	02c6cb63          	blt	a3,a2,2166 <print+0x24e>
    2134:	06f00693          	li	a3,111
    2138:	0ed60563          	beq	a2,a3,2222 <print+0x30a>
    213c:	07000693          	li	a3,112
    2140:	0047e793          	ori	a5,a5,4
    2144:	e2d61ee3          	bne	a2,a3,1f80 <print+0x68>
    2148:	4691                	li	a3,4
    214a:	0cd59263          	bne	a1,a3,220e <print+0x2f6>
    214e:	00840393          	addi	t2,s0,8
    2152:	400c                	lw	a1,0(s0)
    2154:	4050                	lw	a2,4(s0)
    2156:	ca16                	sw	t0,20(sp)
    2158:	c23a                	sw	a4,4(sp)
    215a:	c03e                	sw	a5,0(sp)
    215c:	c81e                	sw	t2,16(sp)
    215e:	87aa                	mv	a5,a0
    2160:	4701                	li	a4,0
    2162:	46c1                	li	a3,16
    2164:	a881                	j	21b4 <print+0x29c>
    2166:	07500693          	li	a3,117
    216a:	06d60b63          	beq	a2,a3,21e0 <print+0x2c8>
    216e:	07800693          	li	a3,120
    2172:	bf45                	j	2122 <print+0x20a>
    2174:	4018                	lw	a4,0(s0)
    2176:	000036b7          	lui	a3,0x3
    217a:	00440393          	addi	t2,s0,4
    217e:	2ec68593          	addi	a1,a3,748 # 32ec <puts+0x1050>
    2182:	c311                	beqz	a4,2186 <print+0x26e>
    2184:	85ba                	mv	a1,a4
    2186:	4732                	lw	a4,12(sp)
    2188:	ca16                	sw	t0,20(sp)
    218a:	c81e                	sw	t2,16(sp)
    218c:	86be                	mv	a3,a5
    218e:	862a                	mv	a2,a0
    2190:	4522                	lw	a0,8(sp)
    2192:	b81ff0ef          	jal	ra,1d12 <prints>
    2196:	a015                	j	21ba <print+0x2a2>
    2198:	4691                	li	a3,4
    219a:	02d59563          	bne	a1,a3,21c4 <print+0x2ac>
    219e:	00840393          	addi	t2,s0,8
    21a2:	400c                	lw	a1,0(s0)
    21a4:	4050                	lw	a2,4(s0)
    21a6:	ca16                	sw	t0,20(sp)
    21a8:	c23a                	sw	a4,4(sp)
    21aa:	c03e                	sw	a5,0(sp)
    21ac:	c81e                	sw	t2,16(sp)
    21ae:	87aa                	mv	a5,a0
    21b0:	4705                	li	a4,1
    21b2:	46a9                	li	a3,10
    21b4:	4522                	lw	a0,8(sp)
    21b6:	d5bff0ef          	jal	ra,1f10 <printLongLongInt>
    21ba:	43c2                	lw	t2,16(sp)
    21bc:	94aa                	add	s1,s1,a0
    21be:	841e                	mv	s0,t2
    21c0:	42d2                	lw	t0,20(sp)
    21c2:	bb7d                	j	1f80 <print+0x68>
    21c4:	46b2                	lw	a3,12(sp)
    21c6:	400c                	lw	a1,0(s0)
    21c8:	c816                	sw	t0,16(sp)
    21ca:	c236                	sw	a3,4(sp)
    21cc:	c03a                	sw	a4,0(sp)
    21ce:	0411                	addi	s0,s0,4
    21d0:	872a                	mv	a4,a0
    21d2:	4685                	li	a3,1
    21d4:	4629                	li	a2,10
    21d6:	4522                	lw	a0,8(sp)
    21d8:	c21ff0ef          	jal	ra,1df8 <printInt>
    21dc:	94aa                	add	s1,s1,a0
    21de:	b341                	j	1f5e <print+0x46>
    21e0:	4691                	li	a3,4
    21e2:	00d59d63          	bne	a1,a3,21fc <print+0x2e4>
    21e6:	00840393          	addi	t2,s0,8
    21ea:	400c                	lw	a1,0(s0)
    21ec:	4050                	lw	a2,4(s0)
    21ee:	ca16                	sw	t0,20(sp)
    21f0:	c23a                	sw	a4,4(sp)
    21f2:	c03e                	sw	a5,0(sp)
    21f4:	c81e                	sw	t2,16(sp)
    21f6:	87aa                	mv	a5,a0
    21f8:	4701                	li	a4,0
    21fa:	bf65                	j	21b2 <print+0x29a>
    21fc:	46b2                	lw	a3,12(sp)
    21fe:	400c                	lw	a1,0(s0)
    2200:	c816                	sw	t0,16(sp)
    2202:	c236                	sw	a3,4(sp)
    2204:	c03a                	sw	a4,0(sp)
    2206:	0411                	addi	s0,s0,4
    2208:	872a                	mv	a4,a0
    220a:	4681                	li	a3,0
    220c:	b7e1                	j	21d4 <print+0x2bc>
    220e:	46b2                	lw	a3,12(sp)
    2210:	c816                	sw	t0,16(sp)
    2212:	400c                	lw	a1,0(s0)
    2214:	4641                	li	a2,16
    2216:	c236                	sw	a3,4(sp)
    2218:	c03a                	sw	a4,0(sp)
    221a:	0411                	addi	s0,s0,4
    221c:	872a                	mv	a4,a0
    221e:	4681                	li	a3,0
    2220:	bf5d                	j	21d6 <print+0x2be>
    2222:	4691                	li	a3,4
    2224:	00d59e63          	bne	a1,a3,2240 <print+0x328>
    2228:	00840393          	addi	t2,s0,8
    222c:	400c                	lw	a1,0(s0)
    222e:	4050                	lw	a2,4(s0)
    2230:	ca16                	sw	t0,20(sp)
    2232:	c23a                	sw	a4,4(sp)
    2234:	c03e                	sw	a5,0(sp)
    2236:	c81e                	sw	t2,16(sp)
    2238:	87aa                	mv	a5,a0
    223a:	4701                	li	a4,0
    223c:	46a1                	li	a3,8
    223e:	bf9d                	j	21b4 <print+0x29c>
    2240:	46b2                	lw	a3,12(sp)
    2242:	400c                	lw	a1,0(s0)
    2244:	c816                	sw	t0,16(sp)
    2246:	c236                	sw	a3,4(sp)
    2248:	c03a                	sw	a4,0(sp)
    224a:	0411                	addi	s0,s0,4
    224c:	872a                	mv	a4,a0
    224e:	4681                	li	a3,0
    2250:	4621                	li	a2,8
    2252:	b751                	j	21d6 <print+0x2be>
    2254:	400c                	lw	a1,0(s0)
    2256:	00840613          	addi	a2,s0,8
    225a:	4040                	lw	s0,4(s0)
    225c:	c23a                	sw	a4,4(sp)
    225e:	872a                	mv	a4,a0
    2260:	4522                	lw	a0,8(sp)
    2262:	c832                	sw	a2,16(sp)
    2264:	c03e                	sw	a5,0(sp)
    2266:	8622                	mv	a2,s0
    2268:	87b6                	mv	a5,a3
    226a:	46a9                	li	a3,10
    226c:	ca16                	sw	t0,20(sp)
    226e:	ca7ff0ef          	jal	ra,1f14 <printDouble>
    2272:	94aa                	add	s1,s1,a0
    2274:	4442                	lw	s0,16(sp)
    2276:	b7a9                	j	21c0 <print+0x2a8>

00002278 <printf>:
    2278:	fdc10113          	addi	sp,sp,-36
    227c:	c82e                	sw	a1,16(sp)
    227e:	ca32                	sw	a2,20(sp)
    2280:	85aa                	mv	a1,a0
    2282:	0810                	addi	a2,sp,16
    2284:	4501                	li	a0,0
    2286:	c606                	sw	ra,12(sp)
    2288:	cc36                	sw	a3,24(sp)
    228a:	ce3a                	sw	a4,28(sp)
    228c:	d03e                	sw	a5,32(sp)
    228e:	c032                	sw	a2,0(sp)
    2290:	c89ff0ef          	jal	ra,1f18 <print>
    2294:	40b2                	lw	ra,12(sp)
    2296:	02410113          	addi	sp,sp,36
    229a:	8082                	ret

0000229c <puts>:
    229c:	1141                	addi	sp,sp,-16
    229e:	c422                	sw	s0,8(sp)
    22a0:	c226                	sw	s1,4(sp)
    22a2:	c606                	sw	ra,12(sp)
    22a4:	211c                	lbu	a5,0(a0)
    22a6:	84aa                	mv	s1,a0
    22a8:	4401                	li	s0,0
    22aa:	81dc                	sb	a5,3(sp)
    22ac:	00310783          	lb	a5,3(sp)
    22b0:	0405                	addi	s0,s0,1
    22b2:	ef99                	bnez	a5,22d0 <puts+0x34>
    22b4:	47a9                	li	a5,10
    22b6:	00310593          	addi	a1,sp,3
    22ba:	4605                	li	a2,1
    22bc:	4501                	li	a0,0
    22be:	81dc                	sb	a5,3(sp)
    22c0:	9bbff0ef          	jal	ra,1c7a <_write>
    22c4:	8522                	mv	a0,s0
    22c6:	40b2                	lw	ra,12(sp)
    22c8:	4422                	lw	s0,8(sp)
    22ca:	4492                	lw	s1,4(sp)
    22cc:	0141                	addi	sp,sp,16
    22ce:	8082                	ret
    22d0:	4605                	li	a2,1
    22d2:	00310593          	addi	a1,sp,3
    22d6:	4501                	li	a0,0
    22d8:	9a3ff0ef          	jal	ra,1c7a <_write>
    22dc:	008487b3          	add	a5,s1,s0
    22e0:	239c                	lbu	a5,0(a5)
    22e2:	81dc                	sb	a5,3(sp)
    22e4:	b7e1                	j	22ac <puts+0x10>
    22e6:	0000                	unimp
    22e8:	6148                	flw	fa0,4(a0)
    22ea:	6472                	flw	fs0,28(sp)
    22ec:	6146                	flw	ft2,80(sp)
    22ee:	6c75                	lui	s8,0x1d
    22f0:	5f74                	lw	a3,124(a4)
    22f2:	6148                	flw	fa0,4(a0)
    22f4:	646e                	flw	fs0,216(sp)
    22f6:	656c                	flw	fa1,76(a0)
    22f8:	0d72                	slli	s10,s10,0x1c
    22fa:	0000                	unimp
    22fc:	4d4e                	lw	s10,208(sp)
    22fe:	5f49                	li	t5,-14
    2300:	6148                	flw	fa0,4(a0)
    2302:	646e                	flw	fs0,216(sp)
    2304:	656c                	flw	fa1,76(a0)
    2306:	0d72                	slli	s10,s10,0x1c
    2308:	0000                	unimp
    230a:	0000                	unimp
    230c:	0b28                	addi	a0,sp,408
    230e:	0000                	unimp
    2310:	0b30                	addi	a2,sp,408
    2312:	0000                	unimp
    2314:	0caa                	slli	s9,s9,0xa
    2316:	0000                	unimp
    2318:	0b46                	slli	s6,s6,0x11
    231a:	0000                	unimp
    231c:	0c26                	slli	s8,s8,0x9
    231e:	0000                	unimp
    2320:	0ca6                	slli	s9,s9,0x9
    2322:	0000                	unimp
    2324:	0c2a                	slli	s8,s8,0xa
    2326:	0000                	unimp
    2328:	0c62                	slli	s8,s8,0x18
    232a:	0000                	unimp
    232c:	0c66                	slli	s8,s8,0x19
    232e:	0000                	unimp
    2330:	0ca6                	slli	s9,s9,0x9
    2332:	0000                	unimp
    2334:	0cae                	slli	s9,s9,0xb
    2336:	0000                	unimp
    2338:	0cbe                	slli	s9,s9,0xf
    233a:	0000                	unimp
    233c:	0cf4                	addi	a3,sp,604
    233e:	0000                	unimp
    2340:	0cfa                	slli	s9,s9,0x1e
    2342:	0000                	unimp
    2344:	0d2e                	slli	s10,s10,0xb
    2346:	0000                	unimp
    2348:	522e                	lw	tp,232(sp)
    234a:	4145                	li	sp,17
    234c:	2044                	lbu	s1,4(s0)
    234e:	464e4f43          	fmadd.q	ft10,ft8,ft4,fs0,rmm
    2352:	4749                	li	a4,18
    2354:	5020                	lw	s0,96(s0)
    2356:	7265776f          	jal	a4,59a7c <_data_lma+0x56784>
    235a:	0000                	unimp
    235c:	6f50                	flw	fa2,28(a4)
    235e:	00726577          	0x726577
    2362:	0000                	unimp
    2364:	522e                	lw	tp,232(sp)
    2366:	4145                	li	sp,17
    2368:	2044                	lbu	s1,4(s0)
    236a:	464e4f43          	fmadd.q	ft10,ft8,ft4,fs0,rmm
    236e:	4749                	li	a4,18
    2370:	4220                	lw	s0,64(a2)
    2372:	74736f6f          	jal	t5,392b8 <_data_lma+0x35fc0>
    2376:	4520                	lw	s0,72(a0)
    2378:	616e                	flw	ft2,216(sp)
    237a:	6c62                	flw	fs8,24(sp)
    237c:	0065                	c.nop	25
    237e:	0000                	unimp
    2380:	2042                	lhu	s0,4(s0)
    2382:	6e45                	lui	t3,0x11
    2384:	6261                	lui	tp,0x18
    2386:	656c                	flw	fa1,76(a0)
    2388:	0000                	unimp
    238a:	0000                	unimp
    238c:	522e                	lw	tp,232(sp)
    238e:	4145                	li	sp,17
    2390:	2044                	lbu	s1,4(s0)
    2392:	464e4f43          	fmadd.q	ft10,ft8,ft4,fs0,rmm
    2396:	4749                	li	a4,18
    2398:	4220                	lw	s0,64(a2)
    239a:	74736f6f          	jal	t5,392e0 <_data_lma+0x35fe8>
    239e:	5020                	lw	s0,96(s0)
    23a0:	7265776f          	jal	a4,59ac6 <_data_lma+0x567ce>
    23a4:	0000                	unimp
    23a6:	0000                	unimp
    23a8:	2042                	lhu	s0,4(s0)
    23aa:	6f50                	flw	fa2,28(a4)
    23ac:	00726577          	0x726577
    23b0:	522e                	lw	tp,232(sp)
    23b2:	4145                	li	sp,17
    23b4:	2044                	lbu	s1,4(s0)
    23b6:	464e4f43          	fmadd.q	ft10,ft8,ft4,fs0,rmm
    23ba:	4749                	li	a4,18
    23bc:	4220                	lw	s0,64(a2)
    23be:	74736f6f          	jal	t5,39304 <_data_lma+0x3600c>
    23c2:	5420                	lw	s0,104(s0)
    23c4:	6d69                	lui	s10,0x1a
    23c6:	0065                	c.nop	25
    23c8:	2042                	lhu	s0,4(s0)
    23ca:	6954                	flw	fa3,20(a0)
    23cc:	656d                	lui	a0,0x1b
    23ce:	0000                	unimp
    23d0:	38335b1b          	0x38335b1b
    23d4:	313b353b          	0x313b353b
    23d8:	3639                	jal	1ee6 <printInt+0xee>
    23da:	5b6d                	li	s6,-5
    23dc:	4545                	li	a0,17
    23de:	5250                	lw	a2,36(a2)
    23e0:	205d4d4f          	fnmadd.s	fs10,fs10,ft5,ft4,rmm
    23e4:	9ce2                	add	s9,s9,s8
    23e6:	5b1b2097          	auipc	ra,0x5b1b2
    23ea:	6d30                	flw	fa2,88(a0)
    23ec:	9ed0                	0x9ed0
    23ee:	a8d0                	sb	a2,20(s1)
    23f0:	98d0                	0x98d0
    23f2:	91d0                	0x91d0
    23f4:	9ad0                	0x9ad0
    23f6:	90d0                	0x90d0
    23f8:	2021                	jal	2400 <puts+0x164>
    23fa:	9fd0                	0x9fd0
    23fc:	bed0                	sb	a2,29(a3)
    23fe:	bfd0                	sb	a2,29(a5)
    2400:	8bd1                	andi	a5,a5,20
    2402:	82d1                	srli	a3,a3,0x14
    2404:	bad0                	sb	a2,21(a3)
    2406:	b0d0                	sb	a2,5(s1)
    2408:	6720                	flw	fs0,72(a4)
    240a:	7465                	lui	s0,0xffff9
    240c:	2928                	lbu	a0,18(a0)
    240e:	d020                	sw	s0,96(s0)
    2410:	d0b4                	sw	a3,96(s1)
    2412:	20be                	lhu	a5,2(s1)
    2414:	b2d0                	sb	a2,5(a3)
    2416:	8bd1                	andi	a5,a5,20
    2418:	b7d0                	sb	a2,13(a5)
    241a:	bed0                	sb	a2,29(a3)
    241c:	b2d0                	sb	a2,5(a3)
    241e:	b0d0                	sb	a2,5(s1)
    2420:	6920                	flw	fs0,80(a0)
    2422:	696e                	flw	fs2,216(sp)
    2424:	2874                	lbu	a3,22(s0)
    2426:	2129                	jal	2830 <puts+0x594>
    2428:	0000                	unimp
    242a:	0000                	unimp
    242c:	38335b1b          	0x38335b1b
    2430:	353b353b          	0x353b353b
    2434:	6d31                	lui	s10,0xc
    2436:	5045455b          	0x5045455b
    243a:	4f52                	lw	t5,20(sp)
    243c:	5d4d                	li	s10,-13
    243e:	1b20                	addi	s0,sp,440
    2440:	1b6d305b          	0x1b6d305b
    2444:	3b38335b          	0x3b38335b
    2448:	3b35                	jal	2184 <print+0x26c>
    244a:	3238                	lbu	a4,3(a2)
    244c:	226d                	jal	25f6 <puts+0x35a>
    244e:	7325                	lui	t1,0xfffe9
    2450:	1b22                	slli	s6,s6,0x28
    2452:	3a6d305b          	0x3a6d305b
    2456:	d020                	sw	s0,96(s0)
    2458:	d082d1a7          	0xd082d1a7
    245c:	d0b5                	beqz	s1,23c0 <puts+0x124>
    245e:	d0bd                	beqz	s1,23c4 <puts+0x128>
    2460:	d0b8                	sw	a4,96(s1)
    2462:	20b5                	jal	24ce <puts+0x232>
    2464:	b7d0                	sb	a2,13(a5)
    2466:	bdd0                	sb	a2,29(a1)
    2468:	b0d0                	sb	a2,5(s1)
    246a:	87d1                	srai	a5,a5,0x14
    246c:	b5d0                	sb	a2,13(a1)
    246e:	bdd0                	sb	a2,29(a1)
    2470:	b8d0                	sb	a2,21(s1)
    2472:	8fd1                	or	a5,a5,a2
    2474:	203a                	lhu	a4,2(s0)
    2476:	38335b1b          	0x38335b1b
    247a:	323b353b          	0x323b353b
    247e:	3632                	lhu	a2,42(a2)
    2480:	d06d                	beqz	s0,2462 <puts+0x1c6>
    2482:	d0b8                	sw	a4,96(s1)
    2484:	d0bd                	beqz	s1,23ea <puts+0x14e>
    2486:	d0b4                	sw	a3,96(s1)
    2488:	d0b5                	beqz	s1,23ec <puts+0x150>
    248a:	d1ba                	sw	a4,224(sp)
    248c:	3d81                	jal	22dc <puts+0x40>
    248e:	7525                	lui	a0,0xfffe9
    2490:	6d305b1b          	0x6d305b1b
    2494:	202c                	lbu	a1,2(s0)
    2496:	b7d0                	sb	a2,13(a5)
    2498:	bdd0                	sb	a2,29(a1)
    249a:	b0d0                	sb	a2,5(s1)
    249c:	87d1                	srai	a5,a5,0x14
    249e:	b5d0                	sb	a2,13(a1)
    24a0:	bdd0                	sb	a2,29(a1)
    24a2:	b8d0                	sb	a2,21(s1)
    24a4:	b5d0                	sb	a2,13(a1)
    24a6:	1b3d                	addi	s6,s6,-17
    24a8:	3b38335b          	0x3b38335b
    24ac:	3b35                	jal	21e8 <print+0x2d0>
    24ae:	3238                	lbu	a4,3(a2)
    24b0:	256d                	jal	2b5a <puts+0x8be>
    24b2:	1b75                	addi	s6,s6,-3
    24b4:	0a6d305b          	0xa6d305b
    24b8:	0000                	unimp
    24ba:	0000                	unimp
    24bc:	38335b1b          	0x38335b1b
    24c0:	313b353b          	0x313b353b
    24c4:	3134                	lbu	a3,3(a0)
    24c6:	5b6d                	li	s6,-5
    24c8:	4545                	li	a0,17
    24ca:	5250                	lw	a2,36(a2)
    24cc:	205d4d4f          	fnmadd.s	fs10,fs10,ft5,ft4,rmm
    24d0:	84e2                	mv	s1,s8
    24d2:	20b9                	jal	2520 <puts+0x284>
    24d4:	6d305b1b          	0x6d305b1b
    24d8:	6d315b1b          	0x6d315b1b
    24dc:	95e2                	add	a1,a1,s8
    24de:	e294                	fsw	fa3,0(a3)
    24e0:	9095                	srli	s1,s1,0x25
    24e2:	95e2                	add	a1,a1,s8
    24e4:	e290                	fsw	fa2,0(a3)
    24e6:	9095                	srli	s1,s1,0x25
    24e8:	95e2                	add	a1,a1,s8
    24ea:	e290                	fsw	fa2,0(a3)
    24ec:	9095                	srli	s1,s1,0x25
    24ee:	95e2                	add	a1,a1,s8
    24f0:	e290                	fsw	fa2,0(a3)
    24f2:	9095                	srli	s1,s1,0x25
    24f4:	95e2                	add	a1,a1,s8
    24f6:	e290                	fsw	fa2,0(a3)
    24f8:	9095                	srli	s1,s1,0x25
    24fa:	95e2                	add	a1,a1,s8
    24fc:	e290                	fsw	fa2,0(a3)
    24fe:	9095                	srli	s1,s1,0x25
    2500:	95e2                	add	a1,a1,s8
    2502:	e290                	fsw	fa2,0(a3)
    2504:	9095                	srli	s1,s1,0x25
    2506:	95e2                	add	a1,a1,s8
    2508:	e290                	fsw	fa2,0(a3)
    250a:	9095                	srli	s1,s1,0x25
    250c:	95e2                	add	a1,a1,s8
    250e:	e290                	fsw	fa2,0(a3)
    2510:	9095                	srli	s1,s1,0x25
    2512:	95e2                	add	a1,a1,s8
    2514:	e290                	fsw	fa2,0(a3)
    2516:	9095                	srli	s1,s1,0x25
    2518:	95e2                	add	a1,a1,s8
    251a:	e290                	fsw	fa2,0(a3)
    251c:	9095                	srli	s1,s1,0x25
    251e:	95e2                	add	a1,a1,s8
    2520:	e290                	fsw	fa2,0(a3)
    2522:	9095                	srli	s1,s1,0x25
    2524:	95e2                	add	a1,a1,s8
    2526:	e290                	fsw	fa2,0(a3)
    2528:	9095                	srli	s1,s1,0x25
    252a:	95e2                	add	a1,a1,s8
    252c:	e290                	fsw	fa2,0(a3)
    252e:	9095                	srli	s1,s1,0x25
    2530:	95e2                	add	a1,a1,s8
    2532:	e290                	fsw	fa2,0(a3)
    2534:	9095                	srli	s1,s1,0x25
    2536:	95e2                	add	a1,a1,s8
    2538:	e290                	fsw	fa2,0(a3)
    253a:	9095                	srli	s1,s1,0x25
    253c:	95e2                	add	a1,a1,s8
    253e:	e290                	fsw	fa2,0(a3)
    2540:	9095                	srli	s1,s1,0x25
    2542:	95e2                	add	a1,a1,s8
    2544:	e290                	fsw	fa2,0(a3)
    2546:	9095                	srli	s1,s1,0x25
    2548:	95e2                	add	a1,a1,s8
    254a:	e290                	fsw	fa2,0(a3)
    254c:	9095                	srli	s1,s1,0x25
    254e:	95e2                	add	a1,a1,s8
    2550:	e290                	fsw	fa2,0(a3)
    2552:	9095                	srli	s1,s1,0x25
    2554:	95e2                	add	a1,a1,s8
    2556:	e290                	fsw	fa2,0(a3)
    2558:	9095                	srli	s1,s1,0x25
    255a:	95e2                	add	a1,a1,s8
    255c:	e290                	fsw	fa2,0(a3)
    255e:	9095                	srli	s1,s1,0x25
    2560:	95e2                	add	a1,a1,s8
    2562:	e290                	fsw	fa2,0(a3)
    2564:	9095                	srli	s1,s1,0x25
    2566:	95e2                	add	a1,a1,s8
    2568:	e290                	fsw	fa2,0(a3)
    256a:	9095                	srli	s1,s1,0x25
    256c:	95e2                	add	a1,a1,s8
    256e:	e290                	fsw	fa2,0(a3)
    2570:	9095                	srli	s1,s1,0x25
    2572:	95e2                	add	a1,a1,s8
    2574:	e290                	fsw	fa2,0(a3)
    2576:	9095                	srli	s1,s1,0x25
    2578:	95e2                	add	a1,a1,s8
    257a:	e290                	fsw	fa2,0(a3)
    257c:	9095                	srli	s1,s1,0x25
    257e:	95e2                	add	a1,a1,s8
    2580:	e290                	fsw	fa2,0(a3)
    2582:	9095                	srli	s1,s1,0x25
    2584:	95e2                	add	a1,a1,s8
    2586:	e290                	fsw	fa2,0(a3)
    2588:	9095                	srli	s1,s1,0x25
    258a:	95e2                	add	a1,a1,s8
    258c:	e290                	fsw	fa2,0(a3)
    258e:	9095                	srli	s1,s1,0x25
    2590:	95e2                	add	a1,a1,s8
    2592:	e290                	fsw	fa2,0(a3)
    2594:	9795                	srai	a5,a5,0x25
    2596:	6d305b1b          	0x6d305b1b
    259a:	0000                	unimp
    259c:	38335b1b          	0x38335b1b
    25a0:	313b353b          	0x313b353b
    25a4:	3134                	lbu	a3,3(a0)
    25a6:	5b6d                	li	s6,-5
    25a8:	4545                	li	a0,17
    25aa:	5250                	lw	a2,36(a2)
    25ac:	205d4d4f          	fnmadd.s	fs10,fs10,ft5,ft4,rmm
    25b0:	84e2                	mv	s1,s8
    25b2:	20b9                	jal	2600 <puts+0x364>
    25b4:	6d305b1b          	0x6d305b1b
    25b8:	6d315b1b          	0x6d315b1b
    25bc:	95e2                	add	a1,a1,s8
    25be:	2091                	jal	2602 <puts+0x366>
    25c0:	98d0                	0x98d0
    25c2:	bdd0                	sb	a2,29(a1)
    25c4:	b8d0                	sb	a2,21(s1)
    25c6:	86d1                	srai	a3,a3,0x14
    25c8:	b8d0                	sb	a2,21(s1)
    25ca:	b0d0                	sb	a2,5(s1)
    25cc:	bbd0                	sb	a2,21(a5)
    25ce:	b8d0                	sb	a2,21(s1)
    25d0:	b7d0                	sb	a2,13(a5)
    25d2:	b0d0                	sb	a2,5(s1)
    25d4:	86d1                	srai	a3,a3,0x14
    25d6:	b8d0                	sb	a2,21(s1)
    25d8:	8fd1                	or	a5,a5,a2
    25da:	4520                	lw	s0,72(a0)
    25dc:	5045                	c.li	zero,-15
    25de:	4f52                	lw	t5,20(sp)
    25e0:	3a4d                	jal	1f92 <print+0x7a>
    25e2:	1b20                	addi	s0,sp,440
    25e4:	3b38335b          	0x3b38335b
    25e8:	3b35                	jal	2324 <puts+0x88>
    25ea:	3238                	lbu	a4,3(a2)
    25ec:	256d                	jal	2c96 <puts+0x9fa>
    25ee:	332d                	jal	2318 <puts+0x7c>
    25f0:	7330                	flw	fa2,96(a4)
    25f2:	6d305b1b          	0x6d305b1b
    25f6:	6d315b1b          	0x6d315b1b
    25fa:	e220                	fsw	fs0,64(a2)
    25fc:	9195                	srli	a1,a1,0x25
    25fe:	6d305b1b          	0x6d305b1b
    2602:	000a                	c.slli	zero,0x2
    2604:	38335b1b          	0x38335b1b
    2608:	313b353b          	0x313b353b
    260c:	3134                	lbu	a3,3(a0)
    260e:	5b6d                	li	s6,-5
    2610:	4545                	li	a0,17
    2612:	5250                	lw	a2,36(a2)
    2614:	205d4d4f          	fnmadd.s	fs10,fs10,ft5,ft4,rmm
    2618:	84e2                	mv	s1,s8
    261a:	20b9                	jal	2668 <puts+0x3cc>
    261c:	6d305b1b          	0x6d305b1b
    2620:	6d315b1b          	0x6d315b1b
    2624:	95e2                	add	a1,a1,s8
    2626:	e2a0                	fsw	fs0,64(a3)
    2628:	9095                	srli	s1,s1,0x25
    262a:	95e2                	add	a1,a1,s8
    262c:	e290                	fsw	fa2,0(a3)
    262e:	9095                	srli	s1,s1,0x25
    2630:	95e2                	add	a1,a1,s8
    2632:	e290                	fsw	fa2,0(a3)
    2634:	9095                	srli	s1,s1,0x25
    2636:	95e2                	add	a1,a1,s8
    2638:	e290                	fsw	fa2,0(a3)
    263a:	9095                	srli	s1,s1,0x25
    263c:	95e2                	add	a1,a1,s8
    263e:	e290                	fsw	fa2,0(a3)
    2640:	9095                	srli	s1,s1,0x25
    2642:	95e2                	add	a1,a1,s8
    2644:	e290                	fsw	fa2,0(a3)
    2646:	9095                	srli	s1,s1,0x25
    2648:	95e2                	add	a1,a1,s8
    264a:	e290                	fsw	fa2,0(a3)
    264c:	9095                	srli	s1,s1,0x25
    264e:	95e2                	add	a1,a1,s8
    2650:	e290                	fsw	fa2,0(a3)
    2652:	9095                	srli	s1,s1,0x25
    2654:	95e2                	add	a1,a1,s8
    2656:	e290                	fsw	fa2,0(a3)
    2658:	9095                	srli	s1,s1,0x25
    265a:	95e2                	add	a1,a1,s8
    265c:	e290                	fsw	fa2,0(a3)
    265e:	9095                	srli	s1,s1,0x25
    2660:	95e2                	add	a1,a1,s8
    2662:	e290                	fsw	fa2,0(a3)
    2664:	9095                	srli	s1,s1,0x25
    2666:	95e2                	add	a1,a1,s8
    2668:	e290                	fsw	fa2,0(a3)
    266a:	9095                	srli	s1,s1,0x25
    266c:	95e2                	add	a1,a1,s8
    266e:	e290                	fsw	fa2,0(a3)
    2670:	9095                	srli	s1,s1,0x25
    2672:	95e2                	add	a1,a1,s8
    2674:	e290                	fsw	fa2,0(a3)
    2676:	9095                	srli	s1,s1,0x25
    2678:	95e2                	add	a1,a1,s8
    267a:	e290                	fsw	fa2,0(a3)
    267c:	9095                	srli	s1,s1,0x25
    267e:	95e2                	add	a1,a1,s8
    2680:	e290                	fsw	fa2,0(a3)
    2682:	9095                	srli	s1,s1,0x25
    2684:	95e2                	add	a1,a1,s8
    2686:	e290                	fsw	fa2,0(a3)
    2688:	9095                	srli	s1,s1,0x25
    268a:	95e2                	add	a1,a1,s8
    268c:	e290                	fsw	fa2,0(a3)
    268e:	9095                	srli	s1,s1,0x25
    2690:	95e2                	add	a1,a1,s8
    2692:	e290                	fsw	fa2,0(a3)
    2694:	9095                	srli	s1,s1,0x25
    2696:	95e2                	add	a1,a1,s8
    2698:	e290                	fsw	fa2,0(a3)
    269a:	9095                	srli	s1,s1,0x25
    269c:	95e2                	add	a1,a1,s8
    269e:	e290                	fsw	fa2,0(a3)
    26a0:	9095                	srli	s1,s1,0x25
    26a2:	95e2                	add	a1,a1,s8
    26a4:	e290                	fsw	fa2,0(a3)
    26a6:	9095                	srli	s1,s1,0x25
    26a8:	95e2                	add	a1,a1,s8
    26aa:	e290                	fsw	fa2,0(a3)
    26ac:	9095                	srli	s1,s1,0x25
    26ae:	95e2                	add	a1,a1,s8
    26b0:	e290                	fsw	fa2,0(a3)
    26b2:	9095                	srli	s1,s1,0x25
    26b4:	95e2                	add	a1,a1,s8
    26b6:	e290                	fsw	fa2,0(a3)
    26b8:	9095                	srli	s1,s1,0x25
    26ba:	95e2                	add	a1,a1,s8
    26bc:	e290                	fsw	fa2,0(a3)
    26be:	9095                	srli	s1,s1,0x25
    26c0:	95e2                	add	a1,a1,s8
    26c2:	e290                	fsw	fa2,0(a3)
    26c4:	9095                	srli	s1,s1,0x25
    26c6:	95e2                	add	a1,a1,s8
    26c8:	e290                	fsw	fa2,0(a3)
    26ca:	9095                	srli	s1,s1,0x25
    26cc:	95e2                	add	a1,a1,s8
    26ce:	e290                	fsw	fa2,0(a3)
    26d0:	9095                	srli	s1,s1,0x25
    26d2:	95e2                	add	a1,a1,s8
    26d4:	e290                	fsw	fa2,0(a3)
    26d6:	9095                	srli	s1,s1,0x25
    26d8:	95e2                	add	a1,a1,s8
    26da:	e290                	fsw	fa2,0(a3)
    26dc:	a395                	j	2c40 <puts+0x9a4>
    26de:	6d305b1b          	0x6d305b1b
    26e2:	0000                	unimp
    26e4:	38335b1b          	0x38335b1b
    26e8:	313b353b          	0x313b353b
    26ec:	3134                	lbu	a3,3(a0)
    26ee:	5b6d                	li	s6,-5
    26f0:	4545                	li	a0,17
    26f2:	5250                	lw	a2,36(a2)
    26f4:	205d4d4f          	fnmadd.s	fs10,fs10,ft5,ft4,rmm
    26f8:	84e2                	mv	s1,s8
    26fa:	20b9                	jal	2748 <puts+0x4ac>
    26fc:	6d305b1b          	0x6d305b1b
    2700:	95e2                	add	a1,a1,s8
    2702:	2091                	jal	2746 <puts+0x4aa>
    2704:	38335b1b          	0x38335b1b
    2708:	323b353b          	0x323b353b
    270c:	3632                	lhu	a2,42(a2)
    270e:	d06d                	beqz	s0,26f0 <puts+0x454>
    2710:	d098                	sw	a4,32(s1)
    2712:	d0bd                	beqz	s1,2678 <puts+0x3dc>
    2714:	d0b4                	sw	a3,96(s1)
    2716:	d0b5                	beqz	s1,267a <puts+0x3de>
    2718:	d1ba                	sw	a4,224(sp)
    271a:	3a81                	jal	206a <print+0x152>
    271c:	2020                	lbu	s0,2(s0)
    271e:	3325                	jal	2446 <puts+0x1aa>
    2720:	1b75                	addi	s6,s6,-3
    2722:	206d305b          	0x206d305b
    2726:	2020                	lbu	s0,2(s0)
    2728:	2020                	lbu	s0,2(s0)
    272a:	2020                	lbu	s0,2(s0)
    272c:	2020                	lbu	s0,2(s0)
    272e:	2020                	lbu	s0,2(s0)
    2730:	2020                	lbu	s0,2(s0)
    2732:	2020                	lbu	s0,2(s0)
    2734:	2020                	lbu	s0,2(s0)
    2736:	2020                	lbu	s0,2(s0)
    2738:	2020                	lbu	s0,2(s0)
    273a:	2020                	lbu	s0,2(s0)
    273c:	2020                	lbu	s0,2(s0)
    273e:	2020                	lbu	s0,2(s0)
    2740:	2020                	lbu	s0,2(s0)
    2742:	2020                	lbu	s0,2(s0)
    2744:	2020                	lbu	s0,2(s0)
    2746:	2020                	lbu	s0,2(s0)
    2748:	2020                	lbu	s0,2(s0)
    274a:	2020                	lbu	s0,2(s0)
    274c:	2020                	lbu	s0,2(s0)
    274e:	2020                	lbu	s0,2(s0)
    2750:	2020                	lbu	s0,2(s0)
    2752:	95e2                	add	a1,a1,s8
    2754:	0a91                	addi	s5,s5,4
    2756:	0000                	unimp
    2758:	38335b1b          	0x38335b1b
    275c:	313b353b          	0x313b353b
    2760:	3134                	lbu	a3,3(a0)
    2762:	5b6d                	li	s6,-5
    2764:	4545                	li	a0,17
    2766:	5250                	lw	a2,36(a2)
    2768:	205d4d4f          	fnmadd.s	fs10,fs10,ft5,ft4,rmm
    276c:	84e2                	mv	s1,s8
    276e:	20b9                	jal	27bc <puts+0x520>
    2770:	6d305b1b          	0x6d305b1b
    2774:	95e2                	add	a1,a1,s8
    2776:	2091                	jal	27ba <puts+0x51e>
    2778:	38335b1b          	0x38335b1b
    277c:	313b353b          	0x313b353b
    2780:	3134                	lbu	a3,3(a0)
    2782:	d06d                	beqz	s0,2764 <puts+0x4c8>
    2784:	d090                	sw	a2,32(s1)
    2786:	d1b4                	sw	a3,96(a1)
    2788:	d080                	sw	s0,32(s1)
    278a:	d1b5                	beqz	a1,26ee <puts+0x452>
    278c:	3a81                	jal	20dc <print+0x1c4>
    278e:	2020                	lbu	s0,2(s0)
    2790:	3020                	lbu	s0,3(s0)
    2792:	2578                	lbu	a4,14(a0)
    2794:	3830                	lbu	a2,19(s0)
    2796:	1b58                	addi	a4,sp,436
    2798:	206d305b          	0x206d305b
    279c:	2020                	lbu	s0,2(s0)
    279e:	2020                	lbu	s0,2(s0)
    27a0:	2020                	lbu	s0,2(s0)
    27a2:	2020                	lbu	s0,2(s0)
    27a4:	2020                	lbu	s0,2(s0)
    27a6:	2020                	lbu	s0,2(s0)
    27a8:	2020                	lbu	s0,2(s0)
    27aa:	2020                	lbu	s0,2(s0)
    27ac:	2020                	lbu	s0,2(s0)
    27ae:	2020                	lbu	s0,2(s0)
    27b0:	2020                	lbu	s0,2(s0)
    27b2:	2020                	lbu	s0,2(s0)
    27b4:	2020                	lbu	s0,2(s0)
    27b6:	2020                	lbu	s0,2(s0)
    27b8:	2020                	lbu	s0,2(s0)
    27ba:	2020                	lbu	s0,2(s0)
    27bc:	2020                	lbu	s0,2(s0)
    27be:	e220                	fsw	fs0,64(a2)
    27c0:	9195                	srli	a1,a1,0x25
    27c2:	000a                	c.slli	zero,0x2
    27c4:	38335b1b          	0x38335b1b
    27c8:	313b353b          	0x313b353b
    27cc:	3134                	lbu	a3,3(a0)
    27ce:	5b6d                	li	s6,-5
    27d0:	4545                	li	a0,17
    27d2:	5250                	lw	a2,36(a2)
    27d4:	205d4d4f          	fnmadd.s	fs10,fs10,ft5,ft4,rmm
    27d8:	84e2                	mv	s1,s8
    27da:	20b9                	jal	2828 <puts+0x58c>
    27dc:	6d305b1b          	0x6d305b1b
    27e0:	95e2                	add	a1,a1,s8
    27e2:	2091                	jal	2826 <puts+0x58a>
    27e4:	94d0                	0x94d0
    27e6:	b8d0                	sb	a2,21(s1)
    27e8:	b0d0                	sb	a2,5(s1)
    27ea:	bfd0                	sb	a2,29(a5)
    27ec:	b0d0                	sb	a2,5(s1)
    27ee:	b7d0                	sb	a2,13(a5)
    27f0:	bed0                	sb	a2,29(a3)
    27f2:	bdd0                	sb	a2,29(a1)
    27f4:	203a                	lhu	a4,2(s0)
    27f6:	7533255b          	0x7533255b
    27fa:	2e20                	lbu	s0,26(a2)
    27fc:	202e                	lhu	a1,2(s0)
    27fe:	3325                	jal	2526 <puts+0x28a>
    2800:	5d75                	li	s10,-3
    2802:	2020                	lbu	s0,2(s0)
    2804:	2020                	lbu	s0,2(s0)
    2806:	2020                	lbu	s0,2(s0)
    2808:	2020                	lbu	s0,2(s0)
    280a:	2020                	lbu	s0,2(s0)
    280c:	2020                	lbu	s0,2(s0)
    280e:	2020                	lbu	s0,2(s0)
    2810:	2020                	lbu	s0,2(s0)
    2812:	2020                	lbu	s0,2(s0)
    2814:	2020                	lbu	s0,2(s0)
    2816:	2020                	lbu	s0,2(s0)
    2818:	2020                	lbu	s0,2(s0)
    281a:	2020                	lbu	s0,2(s0)
    281c:	2020                	lbu	s0,2(s0)
    281e:	2020                	lbu	s0,2(s0)
    2820:	2020                	lbu	s0,2(s0)
    2822:	2020                	lbu	s0,2(s0)
    2824:	2020                	lbu	s0,2(s0)
    2826:	95e2                	add	a1,a1,s8
    2828:	0a91                	addi	s5,s5,4
    282a:	0000                	unimp
    282c:	38335b1b          	0x38335b1b
    2830:	313b353b          	0x313b353b
    2834:	3134                	lbu	a3,3(a0)
    2836:	5b6d                	li	s6,-5
    2838:	4545                	li	a0,17
    283a:	5250                	lw	a2,36(a2)
    283c:	205d4d4f          	fnmadd.s	fs10,fs10,ft5,ft4,rmm
    2840:	84e2                	mv	s1,s8
    2842:	20b9                	jal	2890 <puts+0x5f4>
    2844:	6d305b1b          	0x6d305b1b
    2848:	95e2                	add	a1,a1,s8
    284a:	2091                	jal	288e <puts+0x5f2>
    284c:	38335b1b          	0x38335b1b
    2850:	383b353b          	0x383b353b
    2854:	6d32                	flw	fs10,12(sp)
    2856:	6544                	flw	fs1,12(a0)
    2858:	6166                	flw	ft2,88(sp)
    285a:	6c75                	lui	s8,0x1d
    285c:	3a74                	lbu	a3,23(a2)
    285e:	2020                	lbu	s0,2(s0)
    2860:	3325                	jal	2588 <puts+0x2ec>
    2862:	1b75                	addi	s6,s6,-3
    2864:	206d305b          	0x206d305b
    2868:	2020                	lbu	s0,2(s0)
    286a:	2020                	lbu	s0,2(s0)
    286c:	2020                	lbu	s0,2(s0)
    286e:	2020                	lbu	s0,2(s0)
    2870:	2020                	lbu	s0,2(s0)
    2872:	2020                	lbu	s0,2(s0)
    2874:	2020                	lbu	s0,2(s0)
    2876:	2020                	lbu	s0,2(s0)
    2878:	2020                	lbu	s0,2(s0)
    287a:	2020                	lbu	s0,2(s0)
    287c:	2020                	lbu	s0,2(s0)
    287e:	2020                	lbu	s0,2(s0)
    2880:	2020                	lbu	s0,2(s0)
    2882:	2020                	lbu	s0,2(s0)
    2884:	2020                	lbu	s0,2(s0)
    2886:	2020                	lbu	s0,2(s0)
    2888:	2020                	lbu	s0,2(s0)
    288a:	2020                	lbu	s0,2(s0)
    288c:	2020                	lbu	s0,2(s0)
    288e:	2020                	lbu	s0,2(s0)
    2890:	2020                	lbu	s0,2(s0)
    2892:	e220                	fsw	fs0,64(a2)
    2894:	9195                	srli	a1,a1,0x25
    2896:	000a                	c.slli	zero,0x2
    2898:	38335b1b          	0x38335b1b
    289c:	313b353b          	0x313b353b
    28a0:	3134                	lbu	a3,3(a0)
    28a2:	5b6d                	li	s6,-5
    28a4:	4545                	li	a0,17
    28a6:	5250                	lw	a2,36(a2)
    28a8:	205d4d4f          	fnmadd.s	fs10,fs10,ft5,ft4,rmm
    28ac:	84e2                	mv	s1,s8
    28ae:	20b9                	jal	28fc <puts+0x660>
    28b0:	6d305b1b          	0x6d305b1b
    28b4:	6d315b1b          	0x6d315b1b
    28b8:	95e2                	add	a1,a1,s8
    28ba:	e29a                	fsw	ft6,68(sp)
    28bc:	9095                	srli	s1,s1,0x25
    28be:	95e2                	add	a1,a1,s8
    28c0:	e290                	fsw	fa2,0(a3)
    28c2:	9095                	srli	s1,s1,0x25
    28c4:	95e2                	add	a1,a1,s8
    28c6:	e290                	fsw	fa2,0(a3)
    28c8:	9095                	srli	s1,s1,0x25
    28ca:	95e2                	add	a1,a1,s8
    28cc:	e290                	fsw	fa2,0(a3)
    28ce:	9095                	srli	s1,s1,0x25
    28d0:	95e2                	add	a1,a1,s8
    28d2:	e290                	fsw	fa2,0(a3)
    28d4:	9095                	srli	s1,s1,0x25
    28d6:	95e2                	add	a1,a1,s8
    28d8:	e290                	fsw	fa2,0(a3)
    28da:	9095                	srli	s1,s1,0x25
    28dc:	95e2                	add	a1,a1,s8
    28de:	e290                	fsw	fa2,0(a3)
    28e0:	9095                	srli	s1,s1,0x25
    28e2:	95e2                	add	a1,a1,s8
    28e4:	e290                	fsw	fa2,0(a3)
    28e6:	9095                	srli	s1,s1,0x25
    28e8:	95e2                	add	a1,a1,s8
    28ea:	e290                	fsw	fa2,0(a3)
    28ec:	9095                	srli	s1,s1,0x25
    28ee:	95e2                	add	a1,a1,s8
    28f0:	e290                	fsw	fa2,0(a3)
    28f2:	9095                	srli	s1,s1,0x25
    28f4:	95e2                	add	a1,a1,s8
    28f6:	e290                	fsw	fa2,0(a3)
    28f8:	9095                	srli	s1,s1,0x25
    28fa:	95e2                	add	a1,a1,s8
    28fc:	e290                	fsw	fa2,0(a3)
    28fe:	9095                	srli	s1,s1,0x25
    2900:	95e2                	add	a1,a1,s8
    2902:	e290                	fsw	fa2,0(a3)
    2904:	9095                	srli	s1,s1,0x25
    2906:	95e2                	add	a1,a1,s8
    2908:	e290                	fsw	fa2,0(a3)
    290a:	9095                	srli	s1,s1,0x25
    290c:	95e2                	add	a1,a1,s8
    290e:	e290                	fsw	fa2,0(a3)
    2910:	9095                	srli	s1,s1,0x25
    2912:	95e2                	add	a1,a1,s8
    2914:	e290                	fsw	fa2,0(a3)
    2916:	9095                	srli	s1,s1,0x25
    2918:	95e2                	add	a1,a1,s8
    291a:	e290                	fsw	fa2,0(a3)
    291c:	9095                	srli	s1,s1,0x25
    291e:	95e2                	add	a1,a1,s8
    2920:	e290                	fsw	fa2,0(a3)
    2922:	9095                	srli	s1,s1,0x25
    2924:	95e2                	add	a1,a1,s8
    2926:	e290                	fsw	fa2,0(a3)
    2928:	9095                	srli	s1,s1,0x25
    292a:	95e2                	add	a1,a1,s8
    292c:	e290                	fsw	fa2,0(a3)
    292e:	9095                	srli	s1,s1,0x25
    2930:	95e2                	add	a1,a1,s8
    2932:	e290                	fsw	fa2,0(a3)
    2934:	9095                	srli	s1,s1,0x25
    2936:	95e2                	add	a1,a1,s8
    2938:	e290                	fsw	fa2,0(a3)
    293a:	9095                	srli	s1,s1,0x25
    293c:	95e2                	add	a1,a1,s8
    293e:	e290                	fsw	fa2,0(a3)
    2940:	9095                	srli	s1,s1,0x25
    2942:	95e2                	add	a1,a1,s8
    2944:	e290                	fsw	fa2,0(a3)
    2946:	9095                	srli	s1,s1,0x25
    2948:	95e2                	add	a1,a1,s8
    294a:	e290                	fsw	fa2,0(a3)
    294c:	9095                	srli	s1,s1,0x25
    294e:	95e2                	add	a1,a1,s8
    2950:	e290                	fsw	fa2,0(a3)
    2952:	9095                	srli	s1,s1,0x25
    2954:	95e2                	add	a1,a1,s8
    2956:	e290                	fsw	fa2,0(a3)
    2958:	9095                	srli	s1,s1,0x25
    295a:	95e2                	add	a1,a1,s8
    295c:	e290                	fsw	fa2,0(a3)
    295e:	9095                	srli	s1,s1,0x25
    2960:	95e2                	add	a1,a1,s8
    2962:	e290                	fsw	fa2,0(a3)
    2964:	9095                	srli	s1,s1,0x25
    2966:	95e2                	add	a1,a1,s8
    2968:	e290                	fsw	fa2,0(a3)
    296a:	9095                	srli	s1,s1,0x25
    296c:	95e2                	add	a1,a1,s8
    296e:	e290                	fsw	fa2,0(a3)
    2970:	9d95                	0x9d95
    2972:	6d305b1b          	0x6d305b1b
    2976:	0000                	unimp
    2978:	38335b1b          	0x38335b1b
    297c:	353b353b          	0x353b353b
    2980:	6d31                	lui	s10,0xc
    2982:	5045455b          	0x5045455b
    2986:	4f52                	lw	t5,20(sp)
    2988:	5d4d                	li	s10,-13
    298a:	1b20                	addi	s0,sp,440
    298c:	d06d305b          	0xd06d305b
    2990:	d19f d080 d1be      	0xd1bed080d19f
    2996:	d1b8d087          	0xd1b8d087
    299a:	d082                	sw	zero,96(sp)
    299c:	d0b0                	sw	a2,96(s1)
    299e:	d0bd                	beqz	s1,2904 <puts+0x668>
    29a0:	20be                	lhu	a5,2(s1)
    29a2:	b8d0                	sb	a2,21(s1)
    29a4:	b7d0                	sb	a2,13(a5)
    29a6:	4620                	lw	s0,72(a2)
    29a8:	616c                	flw	fa1,68(a0)
    29aa:	203a6873          	csrrsi	a6,hideleg,20
    29ae:	81d1                	srli	a1,a1,0x14
    29b0:	bbd0                	sb	a2,21(a5)
    29b2:	bed0                	sb	a2,29(a3)
    29b4:	b2d0                	sb	a2,5(a3)
    29b6:	bed0                	sb	a2,29(a3)
    29b8:	3d31                	jal	27d4 <puts+0x538>
    29ba:	38335b1b          	0x38335b1b
    29be:	313b353b          	0x313b353b
    29c2:	3134                	lbu	a3,3(a0)
    29c4:	306d                	jal	226e <print+0x356>
    29c6:	2578                	lbu	a4,14(a0)
    29c8:	3430                	lbu	a2,11(s0)
    29ca:	1b58                	addi	a4,sp,436
    29cc:	206d305b          	0x206d305b
    29d0:	2528                	lbu	a0,10(a0)
    29d2:	2975                	jal	2e8e <puts+0xbf2>
    29d4:	202c                	lbu	a1,2(s0)
    29d6:	81d1                	srli	a1,a1,0x14
    29d8:	bbd0                	sb	a2,21(a5)
    29da:	bed0                	sb	a2,29(a3)
    29dc:	b2d0                	sb	a2,5(a3)
    29de:	bed0                	sb	a2,29(a3)
    29e0:	3d32                	lhu	a2,58(a0)
    29e2:	38335b1b          	0x38335b1b
    29e6:	313b353b          	0x313b353b
    29ea:	3134                	lbu	a3,3(a0)
    29ec:	306d                	jal	2296 <printf+0x1e>
    29ee:	2578                	lbu	a4,14(a0)
    29f0:	3430                	lbu	a2,11(s0)
    29f2:	1b58                	addi	a4,sp,436
    29f4:	206d305b          	0x206d305b
    29f8:	2528                	lbu	a0,10(a0)
    29fa:	2975                	jal	2eb6 <puts+0xc1a>
    29fc:	000a                	c.slli	zero,0x2
    29fe:	0000                	unimp
    2a00:	38335b1b          	0x38335b1b
    2a04:	323b353b          	0x323b353b
    2a08:	3632                	lhu	a2,42(a2)
    2a0a:	5b6d                	li	s6,-5
    2a0c:	4545                	li	a0,17
    2a0e:	5250                	lw	a2,36(a2)
    2a10:	205d4d4f          	fnmadd.s	fs10,fs10,ft5,ft4,rmm
    2a14:	9ae2                	add	s5,s5,s8
    2a16:	20a0                	lbu	s0,2(s1)
    2a18:	6d305b1b          	0x6d305b1b
    2a1c:	9ed0                	0x9ed0
    2a1e:	b1d0                	sb	a2,5(a1)
    2a20:	bdd0                	sb	a2,29(a1)
    2a22:	b0d0                	sb	a2,5(s1)
    2a24:	80d1                	srli	s1,s1,0x14
    2a26:	83d1                	srli	a5,a5,0x14
    2a28:	b6d0                	sb	a2,13(a3)
    2a2a:	b5d0                	sb	a2,13(a1)
    2a2c:	bdd0                	sb	a2,29(a1)
    2a2e:	8bd1                	andi	a5,a5,20
    2a30:	d020                	sw	s0,96(s0)
    2a32:	d0bd                	beqz	s1,2998 <puts+0x6fc>
    2a34:	d0b5                	beqz	s1,2998 <puts+0x6fc>
    2a36:	d0b2                	sw	a2,96(sp)
    2a38:	d1b5                	beqz	a1,299c <puts+0x700>
    2a3a:	d080                	sw	s0,32(s1)
    2a3c:	d1bd                	beqz	a1,29a2 <puts+0x706>
    2a3e:	20b5d08b          	0x20b5d08b
    2a42:	b4d0                	sb	a2,13(s1)
    2a44:	b0d0                	sb	a2,5(s1)
    2a46:	bdd0                	sb	a2,29(a1)
    2a48:	bdd0                	sb	a2,29(a1)
    2a4a:	8bd1                	andi	a5,a5,20
    2a4c:	b5d0                	sb	a2,13(a1)
    2a4e:	d020                	sw	s0,96(s0)
    2a50:	d0b8                	sw	a4,96(s1)
    2a52:	20b8d0bb          	0x20b8d0bb
    2a56:	bfd0                	sb	a2,29(a5)
    2a58:	83d1                	srli	a5,a5,0x14
    2a5a:	81d1                	srli	a1,a1,0x14
    2a5c:	82d1                	srli	a3,a3,0x14
    2a5e:	b0d0                	sb	a2,5(s1)
    2a60:	8fd1                	or	a5,a5,a2
    2a62:	d020                	sw	s0,96(s0)
    2a64:	d0b0d0bf d18fd1bc 	0xd18fd1bcd0b0d0bf
    2a6c:	d182                	sw	zero,224(sp)
    2a6e:	218c                	lbu	a1,0(a1)
    2a70:	0000                	unimp
    2a72:	0000                	unimp
    2a74:	38335b1b          	0x38335b1b
    2a78:	323b353b          	0x323b353b
    2a7c:	3632                	lhu	a2,42(a2)
    2a7e:	5b6d                	li	s6,-5
    2a80:	4545                	li	a0,17
    2a82:	5250                	lw	a2,36(a2)
    2a84:	205d4d4f          	fnmadd.s	fs10,fs10,ft5,ft4,rmm
    2a88:	9ae2                	add	s5,s5,s8
    2a8a:	20a0                	lbu	s0,2(s1)
    2a8c:	6d305b1b          	0x6d305b1b
    2a90:	2020                	lbu	s0,2(s0)
    2a92:	9fd0                	0x9fd0
    2a94:	80d1                	srli	s1,s1,0x14
    2a96:	b8d0                	sb	a2,21(s1)
    2a98:	87d1                	srai	a5,a5,0x14
    2a9a:	b8d0                	sb	a2,21(s1)
    2a9c:	bdd0                	sb	a2,29(a1)
    2a9e:	b0d0                	sb	a2,5(s1)
    2aa0:	203a                	lhu	a4,2(s0)
    2aa2:	38335b1b          	0x38335b1b
    2aa6:	313b353b          	0x313b353b
    2aaa:	3639                	jal	25b8 <puts+0x31c>
    2aac:	d06d                	beqz	s0,2a8e <puts+0x7f2>
    2aae:	d0bd                	beqz	s1,2a14 <puts+0x778>
    2ab0:	d1b5                	beqz	a1,2a14 <puts+0x778>
    2ab2:	d081                	beqz	s1,29b2 <puts+0x716>
    2ab4:	d0be                	sw	a5,96(sp)
    2ab6:	d0b2                	sw	a2,96(sp)
    2ab8:	d0b0d0bf d0b5d0b4 	0xd0b5d0b4d0b0d0bf
    2ac0:	d0bd                	beqz	s1,2a26 <puts+0x78a>
    2ac2:	d0b8                	sw	a4,96(s1)
    2ac4:	20b5                	jal	2b30 <puts+0x894>
    2ac6:	b7d0                	sb	a2,13(a5)
    2ac8:	bdd0                	sb	a2,29(a1)
    2aca:	b0d0                	sb	a2,5(s1)
    2acc:	87d1                	srai	a5,a5,0x14
    2ace:	b5d0                	sb	a2,13(a1)
    2ad0:	bdd0                	sb	a2,29(a1)
    2ad2:	b8d0                	sb	a2,21(s1)
    2ad4:	b9d0                	sb	a2,21(a1)
    2ad6:	6d305b1b          	0x6d305b1b
    2ada:	2820                	lbu	s0,18(s0)
    2adc:	81d1                	srli	a1,a1,0x14
    2ade:	bbd0                	sb	a2,21(a5)
    2ae0:	bed0                	sb	a2,29(a3)
    2ae2:	b2d0                	sb	a2,5(a3)
    2ae4:	bed0                	sb	a2,29(a3)
    2ae6:	3d31                	jal	2902 <puts+0x666>
    2ae8:	7830                	flw	fa2,112(s0)
    2aea:	3025                	jal	2312 <puts+0x76>
    2aec:	5834                	lw	a3,112(s0)
    2aee:	2120                	lbu	s0,2(a0)
    2af0:	203d                	jal	2b1e <puts+0x882>
    2af2:	81d1                	srli	a1,a1,0x14
    2af4:	bbd0                	sb	a2,21(a5)
    2af6:	bed0                	sb	a2,29(a3)
    2af8:	b2d0                	sb	a2,5(a3)
    2afa:	bed0                	sb	a2,29(a3)
    2afc:	3d32                	lhu	a2,58(a0)
    2afe:	7830                	flw	fa2,112(s0)
    2b00:	3025                	jal	2328 <puts+0x8c>
    2b02:	5834                	lw	a3,112(s0)
    2b04:	0a29                	addi	s4,s4,10
    2b06:	0000                	unimp
    2b08:	38335b1b          	0x38335b1b
    2b0c:	323b353b          	0x323b353b
    2b10:	3632                	lhu	a2,42(a2)
    2b12:	5b6d                	li	s6,-5
    2b14:	4545                	li	a0,17
    2b16:	5250                	lw	a2,36(a2)
    2b18:	205d4d4f          	fnmadd.s	fs10,fs10,ft5,ft4,rmm
    2b1c:	9ae2                	add	s5,s5,s8
    2b1e:	20a0                	lbu	s0,2(s1)
    2b20:	6d305b1b          	0x6d305b1b
    2b24:	2020                	lbu	s0,2(s0)
    2b26:	9fd0                	0x9fd0
    2b28:	80d1                	srli	s1,s1,0x14
    2b2a:	b8d0                	sb	a2,21(s1)
    2b2c:	87d1                	srai	a5,a5,0x14
    2b2e:	b8d0                	sb	a2,21(s1)
    2b30:	bdd0                	sb	a2,29(a1)
    2b32:	b0d0                	sb	a2,5(s1)
    2b34:	203a                	lhu	a4,2(s0)
    2b36:	38335b1b          	0x38335b1b
    2b3a:	313b353b          	0x313b353b
    2b3e:	3639                	jal	264c <puts+0x3b0>
    2b40:	d16d                	beqz	a0,2b22 <puts+0x886>
    2b42:	d081                	beqz	s1,2a42 <puts+0x7a6>
    2b44:	d0bed0bb          	0xd0bed0bb
    2b48:	d0b2                	sw	a2,96(sp)
    2b4a:	31be                	lhu	a5,34(a1)
    2b4c:	303d                	jal	237a <puts+0xde>
    2b4e:	4678                	lw	a4,76(a2)
    2b50:	4646                	lw	a2,80(sp)
    2b52:	1b46                	slli	s6,s6,0x31
    2b54:	206d305b          	0x206d305b
    2b58:	d028                	sw	a0,96(s0)
    2b5a:	d0bd                	beqz	s1,2ac0 <puts+0x824>
    2b5c:	20b5                	jal	2bc8 <puts+0x92c>
    2b5e:	b7d0                	sb	a2,13(a5)
    2b60:	b0d0                	sb	a2,5(s1)
    2b62:	bfd0                	sb	a2,29(a5)
    2b64:	80d1                	srli	s1,s1,0x14
    2b66:	bed0                	sb	a2,29(a3)
    2b68:	b3d0                	sb	a2,5(a5)
    2b6a:	80d1                	srli	s1,s1,0x14
    2b6c:	b0d0                	sb	a2,5(s1)
    2b6e:	bcd0                	sb	a2,29(s1)
    2b70:	bcd0                	sb	a2,29(s1)
    2b72:	b8d0                	sb	a2,21(s1)
    2b74:	80d1                	srli	s1,s1,0x14
    2b76:	bed0                	sb	a2,29(a3)
    2b78:	b2d0                	sb	a2,5(a3)
    2b7a:	b0d0                	sb	a2,5(s1)
    2b7c:	bdd0                	sb	a2,29(a1)
    2b7e:	bed0                	sb	a2,29(a3)
    2b80:	0029                	c.nop	10
    2b82:	0000                	unimp
    2b84:	38335b1b          	0x38335b1b
    2b88:	323b353b          	0x323b353b
    2b8c:	3632                	lhu	a2,42(a2)
    2b8e:	5b6d                	li	s6,-5
    2b90:	4545                	li	a0,17
    2b92:	5250                	lw	a2,36(a2)
    2b94:	205d4d4f          	fnmadd.s	fs10,fs10,ft5,ft4,rmm
    2b98:	9ae2                	add	s5,s5,s8
    2b9a:	20a0                	lbu	s0,2(s1)
    2b9c:	6d305b1b          	0x6d305b1b
    2ba0:	2020                	lbu	s0,2(s0)
    2ba2:	9fd0                	0x9fd0
    2ba4:	80d1                	srli	s1,s1,0x14
    2ba6:	b8d0                	sb	a2,21(s1)
    2ba8:	87d1                	srai	a5,a5,0x14
    2baa:	b8d0                	sb	a2,21(s1)
    2bac:	bdd0                	sb	a2,29(a1)
    2bae:	b0d0                	sb	a2,5(s1)
    2bb0:	203a                	lhu	a4,2(s0)
    2bb2:	38335b1b          	0x38335b1b
    2bb6:	313b353b          	0x313b353b
    2bba:	3639                	jal	26c8 <puts+0x42c>
    2bbc:	d16d                	beqz	a0,2b9e <puts+0x902>
    2bbe:	d081                	beqz	s1,2abe <puts+0x822>
    2bc0:	d0bed0bb          	0xd0bed0bb
    2bc4:	d0b2                	sw	a2,96(sp)
    2bc6:	32be                	lhu	a5,34(a3)
    2bc8:	303d                	jal	23f6 <puts+0x15a>
    2bca:	4678                	lw	a4,76(a2)
    2bcc:	4646                	lw	a2,80(sp)
    2bce:	1b46                	slli	s6,s6,0x31
    2bd0:	206d305b          	0x206d305b
    2bd4:	d028                	sw	a0,96(s0)
    2bd6:	d0bd                	beqz	s1,2b3c <puts+0x8a0>
    2bd8:	20b5                	jal	2c44 <puts+0x9a8>
    2bda:	b7d0                	sb	a2,13(a5)
    2bdc:	b0d0                	sb	a2,5(s1)
    2bde:	bfd0                	sb	a2,29(a5)
    2be0:	80d1                	srli	s1,s1,0x14
    2be2:	bed0                	sb	a2,29(a3)
    2be4:	b3d0                	sb	a2,5(a5)
    2be6:	80d1                	srli	s1,s1,0x14
    2be8:	b0d0                	sb	a2,5(s1)
    2bea:	bcd0                	sb	a2,29(s1)
    2bec:	bcd0                	sb	a2,29(s1)
    2bee:	b8d0                	sb	a2,21(s1)
    2bf0:	80d1                	srli	s1,s1,0x14
    2bf2:	bed0                	sb	a2,29(a3)
    2bf4:	b2d0                	sb	a2,5(a3)
    2bf6:	b0d0                	sb	a2,5(s1)
    2bf8:	bdd0                	sb	a2,29(a1)
    2bfa:	bed0                	sb	a2,29(a3)
    2bfc:	0029                	c.nop	10
    2bfe:	0000                	unimp
    2c00:	38335b1b          	0x38335b1b
    2c04:	313b353b          	0x313b353b
    2c08:	3134                	lbu	a3,3(a0)
    2c0a:	5b6d                	li	s6,-5
    2c0c:	4545                	li	a0,17
    2c0e:	5250                	lw	a2,36(a2)
    2c10:	205d4d4f          	fnmadd.s	fs10,fs10,ft5,ft4,rmm
    2c14:	84e2                	mv	s1,s8
    2c16:	20b9                	jal	2c64 <puts+0x9c8>
    2c18:	6d305b1b          	0x6d305b1b
    2c1c:	98d0                	0x98d0
    2c1e:	bdd0                	sb	a2,29(a1)
    2c20:	b8d0                	sb	a2,21(s1)
    2c22:	86d1                	srai	a3,a3,0x14
    2c24:	b8d0                	sb	a2,21(s1)
    2c26:	b0d0                	sb	a2,5(s1)
    2c28:	bbd0                	sb	a2,21(a5)
    2c2a:	b8d0                	sb	a2,21(s1)
    2c2c:	b7d0                	sb	a2,13(a5)
    2c2e:	b0d0                	sb	a2,5(s1)
    2c30:	86d1                	srai	a3,a3,0x14
    2c32:	b8d0                	sb	a2,21(s1)
    2c34:	8fd1                	or	a5,a5,a2
    2c36:	d020                	sw	s0,96(s0)
    2c38:	d0bdd0b7          	lui	ra,0xd0bdd
    2c3c:	d1b0                	sw	a2,96(a1)
    2c3e:	d0b5d087          	0xd0b5d087
    2c42:	d0bd                	beqz	s1,2ba8 <puts+0x90c>
    2c44:	d0b8                	sw	a4,96(s1)
    2c46:	d0b5                	beqz	s1,2baa <puts+0x90e>
    2c48:	20bc                	lbu	a5,2(s1)
    2c4a:	bfd0                	sb	a2,29(a5)
    2c4c:	bed0                	sb	a2,29(a3)
    2c4e:	d120                	sw	s0,96(a0)
    2c50:	d0bcd083          	lhu	ra,-757(s9)
    2c54:	d0be                	sw	a5,96(sp)
    2c56:	d087d1bb          	0xd087d1bb
    2c5a:	d0b0                	sw	a2,96(s1)
    2c5c:	d0bd                	beqz	s1,2bc2 <puts+0x926>
    2c5e:	d1b8                	sw	a4,96(a1)
    2c60:	3a8e                	lhu	a1,48(a3)
    2c62:	1b20                	addi	s0,sp,440
    2c64:	3b38335b          	0x3b38335b
    2c68:	3b35                	jal	29a4 <puts+0x708>
    2c6a:	3238                	lbu	a4,3(a2)
    2c6c:	256d                	jal	3316 <_data_lma+0x1e>
    2c6e:	1b75                	addi	s6,s6,-3
    2c70:	0a6d305b          	0xa6d305b
    2c74:	0000                	unimp
    2c76:	0000                	unimp
    2c78:	38335b1b          	0x38335b1b
    2c7c:	313b353b          	0x313b353b
    2c80:	3134                	lbu	a3,3(a0)
    2c82:	5b6d                	li	s6,-5
    2c84:	4545                	li	a0,17
    2c86:	5250                	lw	a2,36(a2)
    2c88:	205d4d4f          	fnmadd.s	fs10,fs10,ft5,ft4,rmm
    2c8c:	84e2                	mv	s1,s8
    2c8e:	20b9                	jal	2cdc <puts+0xa40>
    2c90:	6d305b1b          	0x6d305b1b
    2c94:	a0d0                	sb	a2,4(s1)
    2c96:	b0d0                	sb	a2,5(s1)
    2c98:	b7d0                	sb	a2,13(a5)
    2c9a:	b1d0                	sb	a2,5(a1)
    2c9c:	bbd0                	sb	a2,21(a5)
    2c9e:	bed0                	sb	a2,29(a3)
    2ca0:	bad0                	sb	a2,21(a3)
    2ca2:	b8d0                	sb	a2,21(s1)
    2ca4:	80d1                	srli	s1,s1,0x14
    2ca6:	bed0                	sb	a2,29(a3)
    2ca8:	b2d0                	sb	a2,5(a3)
    2caa:	bad0                	sb	a2,21(a3)
    2cac:	b0d0                	sb	a2,5(s1)
    2cae:	4620                	lw	s0,72(a2)
    2cb0:	616c                	flw	fa1,68(a0)
    2cb2:	2e2e6873          	csrrsi	a6,0x2e2,28
    2cb6:	002e                	c.slli	zero,0xb
    2cb8:	38335b1b          	0x38335b1b
    2cbc:	313b353b          	0x313b353b
    2cc0:	3134                	lbu	a3,3(a0)
    2cc2:	5b6d                	li	s6,-5
    2cc4:	4545                	li	a0,17
    2cc6:	5250                	lw	a2,36(a2)
    2cc8:	205d4d4f          	fnmadd.s	fs10,fs10,ft5,ft4,rmm
    2ccc:	84e2                	mv	s1,s8
    2cce:	20b9                	jal	2d1c <puts+0xa80>
    2cd0:	6d305b1b          	0x6d305b1b
    2cd4:	91d0                	0x91d0
    2cd6:	8bd1                	andi	a5,a5,20
    2cd8:	81d1                	srli	a1,a1,0x14
    2cda:	82d1                	srli	a3,a3,0x14
    2cdc:	80d1                	srli	s1,s1,0x14
    2cde:	bed0                	sb	a2,29(a3)
    2ce0:	b5d0                	sb	a2,13(a1)
    2ce2:	d120                	sw	s0,96(a0)
    2ce4:	d181                	beqz	a1,2be4 <puts+0x948>
    2ce6:	d082                	sw	zero,96(sp)
    2ce8:	d1b8                	sw	a4,96(a1)
    2cea:	d080                	sw	s0,32(s1)
    2cec:	d0b0                	sw	a2,96(s1)
    2cee:	d0bd                	beqz	s1,2c54 <puts+0x9b8>
    2cf0:	d0b8                	sw	a4,96(s1)
    2cf2:	20b5                	jal	2d5e <puts+0xac2>
    2cf4:	81d1                	srli	a1,a1,0x14
    2cf6:	82d1                	srli	a3,a3,0x14
    2cf8:	80d1                	srli	s1,s1,0x14
    2cfa:	b0d0                	sb	a2,5(s1)
    2cfc:	bdd0                	sb	a2,29(a1)
    2cfe:	b8d0                	sb	a2,21(s1)
    2d00:	86d1                	srai	a3,a3,0x14
    2d02:	8bd1                	andi	a5,a5,20
    2d04:	2e2e                	lhu	a1,26(a2)
    2d06:	002e                	c.slli	zero,0xb
    2d08:	38335b1b          	0x38335b1b
    2d0c:	313b353b          	0x313b353b
    2d10:	3134                	lbu	a3,3(a0)
    2d12:	5b6d                	li	s6,-5
    2d14:	4545                	li	a0,17
    2d16:	5250                	lw	a2,36(a2)
    2d18:	205d4d4f          	fnmadd.s	fs10,fs10,ft5,ft4,rmm
    2d1c:	84e2                	mv	s1,s8
    2d1e:	20b9                	jal	2d6c <puts+0xad0>
    2d20:	6d305b1b          	0x6d305b1b
    2d24:	97d0                	0x97d0
    2d26:	b0d0                	sb	a2,5(s1)
    2d28:	bfd0                	sb	a2,29(a5)
    2d2a:	b8d0                	sb	a2,21(s1)
    2d2c:	81d1                	srli	a1,a1,0x14
    2d2e:	8cd1                	or	s1,s1,a2
    2d30:	d020                	sw	s0,96(s0)
    2d32:	d0bdd0b7          	lui	ra,0xd0bdd
    2d36:	d1b0                	sw	a2,96(a1)
    2d38:	d0b5d087          	0xd0b5d087
    2d3c:	d0bd                	beqz	s1,2ca2 <puts+0xa06>
    2d3e:	d1b8                	sw	a4,96(a1)
    2d40:	bfd0208f          	0xbfd0208f
    2d44:	bed0                	sb	a2,29(a3)
    2d46:	d120                	sw	s0,96(a0)
    2d48:	d0bcd083          	lhu	ra,-757(s9)
    2d4c:	d0be                	sw	a5,96(sp)
    2d4e:	d087d1bb          	0xd087d1bb
    2d52:	d0b0                	sw	a2,96(s1)
    2d54:	d0bd                	beqz	s1,2cba <puts+0xa1e>
    2d56:	d1b8                	sw	a4,96(a1)
    2d58:	2e8e                	lhu	a1,24(a3)
    2d5a:	2e2e                	lhu	a1,26(a2)
    2d5c:	0000                	unimp
    2d5e:	0000                	unimp
    2d60:	38335b1b          	0x38335b1b
    2d64:	313b353b          	0x313b353b
    2d68:	3639                	jal	2876 <puts+0x5da>
    2d6a:	5b6d                	li	s6,-5
    2d6c:	4545                	li	a0,17
    2d6e:	5250                	lw	a2,36(a2)
    2d70:	205d4d4f          	fnmadd.s	fs10,fs10,ft5,ft4,rmm
    2d74:	9ce2                	add	s9,s9,s8
    2d76:	5b1b2097          	auipc	ra,0x5b1b2
    2d7a:	6d30                	flw	fa2,88(a0)
    2d7c:	9ed0                	0x9ed0
    2d7e:	a8d0                	sb	a2,20(s1)
    2d80:	98d0                	0x98d0
    2d82:	91d0                	0x91d0
    2d84:	9ad0                	0x9ad0
    2d86:	90d0                	0x90d0
    2d88:	d020                	sw	s0,96(s0)
    2d8a:	d0b0d0b7          	lui	ra,0xd0b0d
    2d8e:	d1b8d0bf 21b8d081 	0x21b8d081d1b8d0bf
    2d96:	7320                	flw	fs0,96(a4)
    2d98:	3174                	lbu	a3,7(a0)
    2d9a:	253d                	jal	33c8 <_data_lma+0xd0>
    2d9c:	2c64                	lbu	s1,30(s0)
    2d9e:	7320                	flw	fs0,96(a4)
    2da0:	3274                	lbu	a3,7(a2)
    2da2:	253d                	jal	33d0 <_data_lma+0xd8>
    2da4:	0a64                	addi	s1,sp,284
    2da6:	0000                	unimp
    2da8:	38335b1b          	0x38335b1b
    2dac:	313b353b          	0x313b353b
    2db0:	3134                	lbu	a3,3(a0)
    2db2:	5b6d                	li	s6,-5
    2db4:	4545                	li	a0,17
    2db6:	5250                	lw	a2,36(a2)
    2db8:	205d4d4f          	fnmadd.s	fs10,fs10,ft5,ft4,rmm
    2dbc:	84e2                	mv	s1,s8
    2dbe:	20b9                	jal	2e0c <puts+0xb70>
    2dc0:	6d305b1b          	0x6d305b1b
    2dc4:	91d0                	0x91d0
    2dc6:	bbd0                	sb	a2,21(a5)
    2dc8:	bed0                	sb	a2,29(a3)
    2dca:	bad0                	sb	a2,21(a3)
    2dcc:	b8d0                	sb	a2,21(s1)
    2dce:	80d1                	srli	s1,s1,0x14
    2dd0:	bed0                	sb	a2,29(a3)
    2dd2:	b2d0                	sb	a2,5(a3)
    2dd4:	bad0                	sb	a2,21(a3)
    2dd6:	b0d0                	sb	a2,5(s1)
    2dd8:	4620                	lw	s0,72(a2)
    2dda:	616c                	flw	fa1,68(a0)
    2ddc:	2e2e6873          	csrrsi	a6,0x2e2,28
    2de0:	002e                	c.slli	zero,0xb
    2de2:	0000                	unimp
    2de4:	38335b1b          	0x38335b1b
    2de8:	393b353b          	0x393b353b
    2dec:	455b6d33          	0x455b6d33
    2df0:	5045                	c.li	zero,-15
    2df2:	4f52                	lw	t5,20(sp)
    2df4:	5d4d                	li	s10,-13
    2df6:	f020                	fsw	fs0,96(s0)
    2df8:	949f 20a7 5b1b      	0x5b1b20a7949f
    2dfe:	6d30                	flw	fa2,88(a0)
    2e00:	92d0                	0x92d0
    2e02:	b5d0                	sb	a2,13(a1)
    2e04:	80d1                	srli	s1,s1,0x14
    2e06:	b8d0                	sb	a2,21(s1)
    2e08:	84d1                	srai	s1,s1,0x14
    2e0a:	b8d0                	sb	a2,21(s1)
    2e0c:	bad0                	sb	a2,21(a3)
    2e0e:	b0d0                	sb	a2,5(s1)
    2e10:	86d1                	srai	a3,a3,0x14
    2e12:	b8d0                	sb	a2,21(s1)
    2e14:	8fd1                	or	a5,a5,a2
    2e16:	203a                	lhu	a4,2(s0)
    2e18:	81d1                	srli	a1,a1,0x14
    2e1a:	bbd0                	sb	a2,21(a5)
    2e1c:	bed0                	sb	a2,29(a3)
    2e1e:	b2d0                	sb	a2,5(a3)
    2e20:	bed0                	sb	a2,29(a3)
    2e22:	3d31                	jal	2c3e <puts+0x9a2>
    2e24:	7830                	flw	fa2,112(s0)
    2e26:	3025                	jal	264e <puts+0x3b2>
    2e28:	5834                	lw	a3,112(s0)
    2e2a:	202c                	lbu	a1,2(s0)
    2e2c:	81d1                	srli	a1,a1,0x14
    2e2e:	bbd0                	sb	a2,21(a5)
    2e30:	bed0                	sb	a2,29(a3)
    2e32:	b2d0                	sb	a2,5(a3)
    2e34:	bed0                	sb	a2,29(a3)
    2e36:	3d32                	lhu	a2,58(a0)
    2e38:	7830                	flw	fa2,112(s0)
    2e3a:	3025                	jal	2662 <puts+0x3c6>
    2e3c:	5834                	lw	a3,112(s0)
    2e3e:	000a                	c.slli	zero,0x2
    2e40:	38335b1b          	0x38335b1b
    2e44:	343b353b          	0x343b353b
    2e48:	6d36                	flw	fs10,76(sp)
    2e4a:	5045455b          	0x5045455b
    2e4e:	4f52                	lw	t5,20(sp)
    2e50:	5d4d                	li	s10,-13
    2e52:	e220                	fsw	fs0,64(a2)
    2e54:	939c                	0x939c
    2e56:	1b20                	addi	s0,sp,440
    2e58:	d06d305b          	0xd06d305b
    2e5c:	d098                	sw	a4,32(s1)
    2e5e:	d0bd                	beqz	s1,2dc4 <puts+0xb28>
    2e60:	d1b8                	sw	a4,96(a1)
    2e62:	d086                	sw	ra,96(sp)
    2e64:	d0b8                	sw	a4,96(s1)
    2e66:	d0b0                	sw	a2,96(s1)
    2e68:	d0b8d0bb          	0xd0b8d0bb
    2e6c:	d1b0d0b7          	lui	ra,0xd1b0d
    2e70:	d086                	sw	ra,96(sp)
    2e72:	d1b8                	sw	a4,96(a1)
    2e74:	b7d0208f          	0xb7d0208f
    2e78:	b0d0                	sb	a2,5(s1)
    2e7a:	b2d0                	sb	a2,5(a3)
    2e7c:	b5d0                	sb	a2,13(a1)
    2e7e:	80d1                	srli	s1,s1,0x14
    2e80:	88d1                	andi	s1,s1,20
    2e82:	b5d0                	sb	a2,13(a1)
    2e84:	bdd0                	sb	a2,29(a1)
    2e86:	b0d0                	sb	a2,5(s1)
    2e88:	202c                	lbu	a1,2(s0)
    2e8a:	83d1                	srli	a5,a5,0x14
    2e8c:	81d1                	srli	a1,a1,0x14
    2e8e:	82d1                	srli	a3,a3,0x14
    2e90:	b0d0                	sb	a2,5(s1)
    2e92:	bdd0                	sb	a2,29(a1)
    2e94:	bed0                	sb	a2,29(a3)
    2e96:	b2d0                	sb	a2,5(a3)
    2e98:	bbd0                	sb	a2,21(a5)
    2e9a:	b5d0                	sb	a2,13(a1)
    2e9c:	bdd0                	sb	a2,29(a1)
    2e9e:	bed0                	sb	a2,29(a3)
    2ea0:	d020                	sw	s0,96(s0)
    2ea2:	d0bdd0b7          	lui	ra,0xd0bdd
    2ea6:	d1b0                	sw	a2,96(a1)
    2ea8:	d0b5d087          	0xd0b5d087
    2eac:	d0bd                	beqz	s1,2e12 <puts+0xb76>
    2eae:	d0b8                	sw	a4,96(s1)
    2eb0:	3db5                	jal	2d2c <puts+0xa90>
    2eb2:	38335b1b          	0x38335b1b
    2eb6:	383b353b          	0x383b353b
    2eba:	6d32                	flw	fs10,12(sp)
    2ebc:	7525                	lui	a0,0xfffe9
    2ebe:	6d305b1b          	0x6d305b1b
    2ec2:	000a                	c.slli	zero,0x2
    2ec4:	38335b1b          	0x38335b1b
    2ec8:	343b353b          	0x343b353b
    2ecc:	6d36                	flw	fs10,76(sp)
    2ece:	5045455b          	0x5045455b
    2ed2:	4f52                	lw	t5,20(sp)
    2ed4:	5d4d                	li	s10,-13
    2ed6:	e220                	fsw	fs0,64(a2)
    2ed8:	939c                	0x939c
    2eda:	1b20                	addi	s0,sp,440
    2edc:	d06d305b          	0xd06d305b
    2ee0:	d098                	sw	a4,32(s1)
    2ee2:	d0bd                	beqz	s1,2e48 <puts+0xbac>
    2ee4:	d1b8                	sw	a4,96(a1)
    2ee6:	d086                	sw	ra,96(sp)
    2ee8:	d0b8                	sw	a4,96(s1)
    2eea:	d0b0                	sw	a2,96(s1)
    2eec:	d0b8d0bb          	0xd0b8d0bb
    2ef0:	d1b0d0b7          	lui	ra,0xd1b0d
    2ef4:	d086                	sw	ra,96(sp)
    2ef6:	d1b8                	sw	a4,96(a1)
    2ef8:	b7d0208f          	0xb7d0208f
    2efc:	b0d0                	sb	a2,5(s1)
    2efe:	b2d0                	sb	a2,5(a3)
    2f00:	b5d0                	sb	a2,13(a1)
    2f02:	80d1                	srli	s1,s1,0x14
    2f04:	88d1                	andi	s1,s1,20
    2f06:	b5d0                	sb	a2,13(a1)
    2f08:	bdd0                	sb	a2,29(a1)
    2f0a:	b0d0                	sb	a2,5(s1)
    2f0c:	d120                	sw	s0,96(a0)
    2f0e:	d081d183          	lhu	gp,-760(gp) # 20000550 <_ebss+0x48c>
    2f12:	d1b5d0bf d0bdd088 	0xd0bdd088d1b5d0bf
    2f1a:	2cbe                	lhu	a5,26(s1)
    2f1c:	d020                	sw	s0,96(s0)
    2f1e:	d0b0d0b7          	lui	ra,0xd0b0d
    2f22:	d180d1b3          	0xd180d1b3
    2f26:	d0b6d083          	lhu	ra,-757(a3)
    2f2a:	d0b5                	beqz	s1,2e8e <puts+0xbf2>
    2f2c:	d0bd                	beqz	s1,2e92 <puts+0xbf6>
    2f2e:	20be                	lhu	a5,2(s1)
    2f30:	b7d0                	sb	a2,13(a5)
    2f32:	bdd0                	sb	a2,29(a1)
    2f34:	b0d0                	sb	a2,5(s1)
    2f36:	87d1                	srai	a5,a5,0x14
    2f38:	b5d0                	sb	a2,13(a1)
    2f3a:	bdd0                	sb	a2,29(a1)
    2f3c:	b8d0                	sb	a2,21(s1)
    2f3e:	b5d0                	sb	a2,13(a1)
    2f40:	1b3d                	addi	s6,s6,-17
    2f42:	3b38335b          	0x3b38335b
    2f46:	3b35                	jal	2c82 <puts+0x9e6>
    2f48:	3238                	lbu	a4,3(a2)
    2f4a:	256d                	jal	35f4 <_data_lma+0x2fc>
    2f4c:	1b75                	addi	s6,s6,-3
    2f4e:	0a6d305b          	0xa6d305b
    2f52:	0000                	unimp
    2f54:	97d0                	0x97d0
    2f56:	b0d0                	sb	a2,5(s1)
    2f58:	81d1                	srli	a1,a1,0x14
    2f5a:	bdd0                	sb	a2,29(a1)
    2f5c:	83d1                	srli	a5,a5,0x14
    2f5e:	bbd0                	sb	a2,21(a5)
    2f60:	b8d0                	sb	a2,21(s1)
    2f62:	000d                	c.nop	3
    2f64:	9fd0                	0x9fd0
    2f66:	80d1                	srli	s1,s1,0x14
    2f68:	bed0                	sb	a2,29(a3)
    2f6a:	81d1                	srli	a1,a1,0x14
    2f6c:	bdd0                	sb	a2,29(a1)
    2f6e:	83d1                	srli	a5,a5,0x14
    2f70:	bbd0                	sb	a2,21(a5)
    2f72:	b8d0                	sb	a2,21(s1)
    2f74:	81d1                	srli	a1,a1,0x14
    2f76:	8cd1                	or	s1,s1,a2
    2f78:	000d                	c.nop	3
    2f7a:	0000                	unimp
    2f7c:	0a0d                	addi	s4,s4,3
    2f7e:	2d2d                	jal	35b8 <_data_lma+0x2c0>
    2f80:	2d2d                	jal	35ba <_data_lma+0x2c2>
    2f82:	2d2d                	jal	35bc <_data_lma+0x2c4>
    2f84:	2d2d                	jal	35be <_data_lma+0x2c6>
    2f86:	2d2d                	jal	35c0 <_data_lma+0x2c8>
    2f88:	2d2d                	jal	35c2 <_data_lma+0x2ca>
    2f8a:	2d2d                	jal	35c4 <_data_lma+0x2cc>
    2f8c:	2d2d                	jal	35c6 <_data_lma+0x2ce>
    2f8e:	2d2d                	jal	35c8 <_data_lma+0x2d0>
    2f90:	2d2d                	jal	35ca <_data_lma+0x2d2>
    2f92:	2d2d                	jal	35cc <_data_lma+0x2d4>
    2f94:	2d2d                	jal	35ce <_data_lma+0x2d6>
    2f96:	2d2d                	jal	35d0 <_data_lma+0x2d8>
    2f98:	2d2d                	jal	35d2 <_data_lma+0x2da>
    2f9a:	2d2d                	jal	35d4 <_data_lma+0x2dc>
    2f9c:	2d2d                	jal	35d6 <_data_lma+0x2de>
    2f9e:	2d2d                	jal	35d8 <_data_lma+0x2e0>
    2fa0:	2d2d                	jal	35da <_data_lma+0x2e2>
    2fa2:	2d2d                	jal	35dc <_data_lma+0x2e4>
    2fa4:	0d2d                	addi	s10,s10,11
    2fa6:	0000                	unimp
    2fa8:	9fd0                	0x9fd0
    2faa:	80d1                	srli	s1,s1,0x14
    2fac:	b8d0                	sb	a2,21(s1)
    2fae:	b2d0                	sb	a2,5(a3)
    2fb0:	b5d0                	sb	a2,13(a1)
    2fb2:	82d1                	srli	a3,a3,0x14
    2fb4:	5320                	lw	s0,96(a4)
    2fb6:	7379                	lui	t1,0xffffe
    2fb8:	6574                	flw	fa3,76(a0)
    2fba:	436d                	li	t1,27
    2fbc:	6b6c                	flw	fa1,84(a4)
    2fbe:	253a                	lhu	a4,10(a0)
    2fc0:	0d64                	addi	s1,sp,668
    2fc2:	000a                	c.slli	zero,0x2
    2fc4:	464e4f43          	fmadd.q	ft10,ft8,ft4,fs0,rmm
    2fc8:	4749                	li	a4,18
    2fca:	5020                	lw	s0,96(s0)
    2fcc:	7265776f          	jal	a4,5a6f2 <_data_lma+0x573fa>
    2fd0:	2020                	lbu	s0,2(s0)
    2fd2:	2020                	lbu	s0,2(s0)
    2fd4:	2020                	lbu	s0,2(s0)
    2fd6:	2020                	lbu	s0,2(s0)
    2fd8:	203a                	lhu	a4,2(s0)
    2fda:	6425                	lui	s0,0x9
    2fdc:	0a0d                	addi	s4,s4,3
    2fde:	0000                	unimp
    2fe0:	464e4f43          	fmadd.q	ft10,ft8,ft4,fs0,rmm
    2fe4:	4749                	li	a4,18
    2fe6:	4220                	lw	s0,64(a2)
    2fe8:	74736f6f          	jal	t5,39f2e <_data_lma+0x36c36>
    2fec:	4520                	lw	s0,72(a0)
    2fee:	616e                	flw	ft2,216(sp)
    2ff0:	6c62                	flw	fs8,24(sp)
    2ff2:	2065                	jal	309a <puts+0xdfe>
    2ff4:	203a                	lhu	a4,2(s0)
    2ff6:	6425                	lui	s0,0x9
    2ff8:	0a0d                	addi	s4,s4,3
    2ffa:	0000                	unimp
    2ffc:	464e4f43          	fmadd.q	ft10,ft8,ft4,fs0,rmm
    3000:	4749                	li	a4,18
    3002:	4220                	lw	s0,64(a2)
    3004:	74736f6f          	jal	t5,39f4a <_data_lma+0x36c52>
    3008:	5020                	lw	s0,96(s0)
    300a:	7265776f          	jal	a4,5a730 <_data_lma+0x57438>
    300e:	2020                	lbu	s0,2(s0)
    3010:	3a20                	lbu	s0,19(a2)
    3012:	2520                	lbu	s0,10(a0)
    3014:	2064                	lbu	s1,6(s0)
    3016:	736d                	lui	t1,0xffffb
    3018:	0a0d                	addi	s4,s4,3
    301a:	0000                	unimp
    301c:	464e4f43          	fmadd.q	ft10,ft8,ft4,fs0,rmm
    3020:	4749                	li	a4,18
    3022:	4220                	lw	s0,64(a2)
    3024:	74736f6f          	jal	t5,39f6a <_data_lma+0x36c72>
    3028:	5420                	lw	s0,104(s0)
    302a:	6d69                	lui	s10,0x1a
    302c:	2065                	jal	30d4 <puts+0xe38>
    302e:	2020                	lbu	s0,2(s0)
    3030:	203a                	lhu	a4,2(s0)
    3032:	6425                	lui	s0,0x9
    3034:	6d20                	flw	fs0,88(a0)
    3036:	000a0d73          	0xa0d73
    303a:	0000                	unimp
    303c:	2e2e6f47          	fmsub.q	ft10,ft8,ft2,ft5,unknown
    3040:	0d2e                	slli	s10,s10,0xb
    3042:	0000                	unimp
    3044:	203e                	lhu	a5,2(s0)
    3046:	65726353          	0x65726353
    304a:	6e65                	lui	t3,0x19
    304c:	6f42                	flw	ft10,16(sp)
    304e:	5474736f          	jal	t1,4ad94 <_data_lma+0x47a9c>
    3052:	6d69                	lui	s10,0x1a
    3054:	2065                	jal	30fc <puts+0xe60>
    3056:	6f48                	flw	fa0,28(a4)
    3058:	646c                	flw	fa1,76(s0)
    305a:	000d                	c.nop	3
    305c:	203e                	lhu	a5,2(s0)
    305e:	65726353          	0x65726353
    3062:	6e65                	lui	t3,0x19
    3064:	6f42                	flw	ft10,16(sp)
    3066:	5474736f          	jal	t1,4adac <_data_lma+0x47ab4>
    306a:	6d69                	lui	s10,0x1a
    306c:	2065                	jal	3114 <puts+0xe78>
    306e:	70657453          	0x70657453
    3072:	2520                	lbu	s0,10(a0)
    3074:	0d64                	addi	s1,sp,668
    3076:	000a                	c.slli	zero,0x2
    3078:	203e                	lhu	a5,2(s0)
    307a:	65726353          	0x65726353
    307e:	6e65                	lui	t3,0x19
    3080:	6f42                	flw	ft10,16(sp)
    3082:	5474736f          	jal	t1,4adc8 <_data_lma+0x47ad0>
    3086:	6d69                	lui	s10,0x1a
    3088:	2065                	jal	3130 <puts+0xe94>
    308a:	6572                	flw	fa0,28(sp)
    308c:	656c                	flw	fa1,76(a0)
    308e:	7361                	lui	t1,0xffff8
    3090:	5365                	li	t1,-7
    3092:	6574                	flw	fa3,76(a0)
    3094:	0d70                	addi	a2,sp,668
    3096:	0000                	unimp
    3098:	6f42                	flw	ft10,16(sp)
    309a:	5474736f          	jal	t1,4ade0 <_data_lma+0x47ae8>
    309e:	6d69                	lui	s10,0x1a
    30a0:	3a65                	jal	2a58 <puts+0x7bc>
    30a2:	2520                	lbu	s0,10(a0)
    30a4:	2064                	lbu	s1,6(s0)
    30a6:	736d                	lui	t1,0xffffb
    30a8:	000a                	c.slli	zero,0x2
    30aa:	0000                	unimp
    30ac:	43746567          	0x43746567
    30b0:	696c                	flw	fa1,84(a0)
    30b2:	20736b63          	bltu	t1,t2,32c8 <puts+0x102c>
    30b6:	3d3d                	jal	2ef4 <puts+0xc58>
    30b8:	3320                	lbu	s0,3(a4)
    30ba:	000d                	c.nop	3
    30bc:	63696c43          	fmadd.d	fs8,fs2,fs6,fa2,unknown
    30c0:	00000d6b          	0xd6b
    30c4:	6f48                	flw	fa0,28(a4)
    30c6:	646c                	flw	fa1,76(s0)
    30c8:	000d                	c.nop	3
    30ca:	0000                	unimp
    30cc:	70657453          	0x70657453
    30d0:	2520                	lbu	s0,10(a0)
    30d2:	0d64                	addi	s1,sp,668
    30d4:	000a                	c.slli	zero,0x2
    30d6:	0000                	unimp
    30d8:	6572                	flw	fa0,28(sp)
    30da:	656c                	flw	fa1,76(a0)
    30dc:	7361                	lui	t1,0xffff8
    30de:	5365                	li	t1,-7
    30e0:	6574                	flw	fa3,76(a0)
    30e2:	0d70                	addi	a2,sp,668
    30e4:	0000                	unimp
    30e6:	0000                	unimp
    30e8:	6552                	flw	fa0,20(sp)
    30ea:	656c                	flw	fa1,76(a0)
    30ec:	7361                	lui	t1,0xffff8
    30ee:	0d65                	addi	s10,s10,25
    30f0:	0000                	unimp
    30f2:	0000                	unimp
    30f4:	6954                	flw	fa3,20(a0)
    30f6:	656d                	lui	a0,0x1b
    30f8:	0d74756f          	jal	a0,4a9ce <_data_lma+0x476d6>
    30fc:	0000                	unimp
    30fe:	0000                	unimp
    3100:	65726353          	0x65726353
    3104:	6e65                	lui	t3,0x19
    3106:	6f50                	flw	fa2,28(a4)
    3108:	20726577          	0x20726577
    310c:	63696c43          	fmadd.d	fs8,fs2,fs6,fa2,unknown
    3110:	203a736b          	0x203a736b
    3114:	6425                	lui	s0,0x9
    3116:	0a0d                	addi	s4,s4,3
    3118:	0000                	unimp
    311a:	0000                	unimp
    311c:	43202b2b          	0x43202b2b
    3120:	696c                	flw	fa1,84(a0)
    3122:	3a736b63          	bltu	t1,t2,34d8 <_data_lma+0x1e0>
    3126:	2520                	lbu	s0,10(a0)
    3128:	2064                	lbu	s1,6(s0)
    312a:	6d69                	lui	s10,0x1a
    312c:	3a70                	lbu	a2,23(a2)
    312e:	6425                	lui	s0,0x9
    3130:	0a0d                	addi	s4,s4,3
    3132:	0000                	unimp
    3134:	2d2d                	jal	376e <_data_lma+0x476>
    3136:	4320                	lw	s0,64(a4)
    3138:	696c                	flw	fa1,84(a0)
    313a:	3a736b63          	bltu	t1,t2,34f0 <_data_lma+0x1f8>
    313e:	2520                	lbu	s0,10(a0)
    3140:	2064                	lbu	s1,6(s0)
    3142:	6d69                	lui	s10,0x1a
    3144:	3a70                	lbu	a2,23(a2)
    3146:	6425                	lui	s0,0x9
    3148:	0a0d                	addi	s4,s4,3
    314a:	0000                	unimp
    314c:	74617453          	0x74617453
    3150:	7375                	lui	t1,0xffffd
    3152:	000d                	c.nop	3
    3154:	38335b1b          	0x38335b1b
    3158:	313b353b          	0x313b353b
    315c:	3639                	jal	2c6a <puts+0x9ce>
    315e:	5b6d                	li	s6,-5
    3160:	4545                	li	a0,17
    3162:	5250                	lw	a2,36(a2)
    3164:	205d4d4f          	fnmadd.s	fs10,fs10,ft5,ft4,rmm
    3168:	9ce2                	add	s9,s9,s8
    316a:	5b1b2097          	auipc	ra,0x5b1b2
    316e:	6d30                	flw	fa2,88(a0)
    3170:	9ed0                	0x9ed0
    3172:	a8d0                	sb	a2,20(s1)
    3174:	98d0                	0x98d0
    3176:	91d0                	0x91d0
    3178:	9ad0                	0x9ad0
    317a:	90d0                	0x90d0
    317c:	2021                	jal	3184 <puts+0xee8>
    317e:	9fd0                	0x9fd0
    3180:	bed0                	sb	a2,29(a3)
    3182:	bfd0                	sb	a2,29(a5)
    3184:	8bd1                	andi	a5,a5,20
    3186:	82d1                	srli	a3,a3,0x14
    3188:	bad0                	sb	a2,21(a3)
    318a:	b0d0                	sb	a2,5(s1)
    318c:	7320                	flw	fs0,96(a4)
    318e:	7465                	lui	s0,0xffff9
    3190:	2928                	lbu	a0,18(a0)
    3192:	d020                	sw	s0,96(s0)
    3194:	d0b4                	sw	a3,96(s1)
    3196:	20be                	lhu	a5,2(s1)
    3198:	b2d0                	sb	a2,5(a3)
    319a:	8bd1                	andi	a5,a5,20
    319c:	b7d0                	sb	a2,13(a5)
    319e:	bed0                	sb	a2,29(a3)
    31a0:	b2d0                	sb	a2,5(a3)
    31a2:	b0d0                	sb	a2,5(s1)
    31a4:	6920                	flw	fs0,80(a0)
    31a6:	696e                	flw	fs2,216(sp)
    31a8:	2874                	lbu	a3,22(s0)
    31aa:	2129                	jal	35b4 <_data_lma+0x2bc>
    31ac:	0000                	unimp
    31ae:	0000                	unimp
    31b0:	38335b1b          	0x38335b1b
    31b4:	323b353b          	0x323b353b
    31b8:	3632                	lhu	a2,42(a2)
    31ba:	5b6d                	li	s6,-5
    31bc:	4545                	li	a0,17
    31be:	5250                	lw	a2,36(a2)
    31c0:	205d4d4f          	fnmadd.s	fs10,fs10,ft5,ft4,rmm
    31c4:	9ae2                	add	s5,s5,s8
    31c6:	20a0                	lbu	s0,2(s1)
    31c8:	6d305b1b          	0x6d305b1b
    31cc:	38335b1b          	0x38335b1b
    31d0:	383b353b          	0x383b353b
    31d4:	6d32                	flw	fs10,12(sp)
    31d6:	2522                	lhu	s0,10(a0)
    31d8:	5b1b2273          	csrrs	tp,0x5b1,s6
    31dc:	6d30                	flw	fa2,88(a0)
    31de:	203a                	lhu	a4,2(s0)
    31e0:	97d0                	0x97d0
    31e2:	bdd0                	sb	a2,29(a1)
    31e4:	b0d0                	sb	a2,5(s1)
    31e6:	87d1                	srai	a5,a5,0x14
    31e8:	b5d0                	sb	a2,13(a1)
    31ea:	bdd0                	sb	a2,29(a1)
    31ec:	b8d0                	sb	a2,21(s1)
    31ee:	b5d0                	sb	a2,13(a1)
    31f0:	1b20                	addi	s0,sp,440
    31f2:	3b38335b          	0x3b38335b
    31f6:	3b35                	jal	2f32 <puts+0xc96>
    31f8:	3931                	jal	2e14 <puts+0xb78>
    31fa:	6d36                	flw	fs10,76(sp)
    31fc:	7525                	lui	a0,0xfffe9
    31fe:	6d305b1b          	0x6d305b1b
    3202:	d020                	sw	s0,96(s0)
    3204:	d1b2                	sw	a2,224(sp)
    3206:	d085d18b          	0xd085d18b
    320a:	d0be                	sw	a5,96(sp)
    320c:	d0b4                	sw	a3,96(s1)
    320e:	d1b8                	sw	a4,96(a1)
    3210:	2082                	lhu	s0,0(s1)
    3212:	b7d0                	sb	a2,13(a5)
    3214:	b0d0                	sb	a2,5(s1)
    3216:	d020                	sw	s0,96(s0)
    3218:	d080d1b3          	0xd080d1b3
    321c:	d0b0                	sw	a2,96(s1)
    321e:	d0bd                	beqz	s1,3184 <puts+0xee8>
    3220:	d1b8                	sw	a4,96(a1)
    3222:	d186                	sw	ra,224(sp)
    3224:	255b208b          	0x255b208b
    3228:	2e75                	jal	35e4 <_data_lma+0x2ec>
    322a:	252e                	lhu	a1,10(a0)
    322c:	5d75                	li	s10,-3
    322e:	202c                	lbu	a1,2(s0)
    3230:	bed0                	sb	a2,29(a3)
    3232:	b3d0                	sb	a2,5(a5)
    3234:	80d1                	srli	s1,s1,0x14
    3236:	b0d0                	sb	a2,5(s1)
    3238:	bdd0                	sb	a2,29(a1)
    323a:	b8d0                	sb	a2,21(s1)
    323c:	87d1                	srai	a5,a5,0x14
    323e:	b5d0                	sb	a2,13(a1)
    3240:	bdd0                	sb	a2,29(a1)
    3242:	bed0                	sb	a2,29(a3)
    3244:	000a                	c.slli	zero,0x2
    3246:	0000                	unimp
    3248:	38335b1b          	0x38335b1b
    324c:	353b353b          	0x353b353b
    3250:	6d31                	lui	s10,0xc
    3252:	5045455b          	0x5045455b
    3256:	4f52                	lw	t5,20(sp)
    3258:	5d4d                	li	s10,-13
    325a:	1b20                	addi	s0,sp,440
    325c:	1b6d305b          	0x1b6d305b
    3260:	3b38335b          	0x3b38335b
    3264:	3b35                	jal	2fa0 <puts+0xd04>
    3266:	3238                	lbu	a4,3(a2)
    3268:	226d                	jal	3412 <_data_lma+0x11a>
    326a:	7325                	lui	t1,0xfffe9
    326c:	1b22                	slli	s6,s6,0x28
    326e:	3a6d305b          	0x3a6d305b
    3272:	d020                	sw	s0,96(s0)
    3274:	d181d1a3          	0xd181d1a3
    3278:	d082                	sw	zero,96(sp)
    327a:	d0b0                	sw	a2,96(s1)
    327c:	d0bd                	beqz	s1,31e2 <puts+0xf46>
    327e:	d0be                	sw	a5,96(sp)
    3280:	d0b2                	sw	a2,96(sp)
    3282:	d0ba                	sw	a4,96(sp)
    3284:	20b0                	lbu	a2,2(s1)
    3286:	b7d0                	sb	a2,13(a5)
    3288:	bdd0                	sb	a2,29(a1)
    328a:	b0d0                	sb	a2,5(s1)
    328c:	87d1                	srai	a5,a5,0x14
    328e:	b5d0                	sb	a2,13(a1)
    3290:	bdd0                	sb	a2,29(a1)
    3292:	b8d0                	sb	a2,21(s1)
    3294:	8fd1                	or	a5,a5,a2
    3296:	203a                	lhu	a4,2(s0)
    3298:	38335b1b          	0x38335b1b
    329c:	323b353b          	0x323b353b
    32a0:	3632                	lhu	a2,42(a2)
    32a2:	d06d                	beqz	s0,3284 <puts+0xfe8>
    32a4:	d0b8                	sw	a4,96(s1)
    32a6:	d0bd                	beqz	s1,320c <puts+0xf70>
    32a8:	d0b4                	sw	a3,96(s1)
    32aa:	d0b5                	beqz	s1,320e <puts+0xf72>
    32ac:	d1ba                	sw	a4,224(sp)
    32ae:	3d81                	jal	30fe <puts+0xe62>
    32b0:	7525                	lui	a0,0xfffe9
    32b2:	6d305b1b          	0x6d305b1b
    32b6:	202c                	lbu	a1,2(s0)
    32b8:	81d1                	srli	a1,a1,0x14
    32ba:	82d1                	srli	a3,a3,0x14
    32bc:	b0d0                	sb	a2,5(s1)
    32be:	80d1                	srli	s1,s1,0x14
    32c0:	bed0                	sb	a2,29(a3)
    32c2:	b5d0                	sb	a2,13(a1)
    32c4:	253d                	jal	38f2 <_data_lma+0x5fa>
    32c6:	2075                	jal	3372 <_data_lma+0x7a>
    32c8:	86e2                	mv	a3,s8
    32ca:	2092                	lhu	a2,0(s1)
    32cc:	38335b1b          	0x38335b1b
    32d0:	383b353b          	0x383b353b
    32d4:	6d32                	flw	fs10,12(sp)
    32d6:	bdd0                	sb	a2,29(a1)
    32d8:	bed0                	sb	a2,29(a3)
    32da:	b2d0                	sb	a2,5(a3)
    32dc:	bed0                	sb	a2,29(a3)
    32de:	b5d0                	sb	a2,13(a1)
    32e0:	253d                	jal	390e <_data_lma+0x616>
    32e2:	1b75                	addi	s6,s6,-3
    32e4:	0a6d305b          	0xa6d305b
    32e8:	0000                	unimp
    32ea:	0000                	unimp
    32ec:	6e28                	flw	fa0,88(a2)
    32ee:	6c75                	lui	s8,0x1d
    32f0:	296c                	lbu	a1,22(a0)
	...
