
Standby_Mode.elf:     file format elf32-littleriscv
Standby_Mode.elf
architecture: riscv:rv32, flags 0x00000112:
EXEC_P, HAS_SYMS, D_PAGED
start address 0x00000000

Program Header:
    LOAD off    0x00001000 vaddr 0x00000000 paddr 0x00000000 align 2**12
         filesz 0x000000a0 memsz 0x000000a0 flags r-x
    LOAD off    0x00002000 vaddr 0x20000000 paddr 0x000000a0 align 2**12
         filesz 0x0000001c memsz 0x0000001c flags r-x
    LOAD off    0x000020bc vaddr 0x000000bc paddr 0x000000bc align 2**12
         filesz 0x00002644 memsz 0x00002644 flags rwx
    LOAD off    0x0000501c vaddr 0x2000001c paddr 0x00002700 align 2**12
         filesz 0x0000003c memsz 0x00000064 flags rw-
    LOAD off    0x00005700 vaddr 0x20000700 paddr 0x20000700 align 2**12
         filesz 0x00000000 memsz 0x00000100 flags rw-

Sections:
Idx Name          Size      VMA       LMA       File off  Algn
  0 .init         000000a0  00000000  00000000  00001000  2**2
                  CONTENTS, ALLOC, LOAD, READONLY, CODE
  1 .highcodelalign 00000000  000000a0  000000a0  00005058  2**0
                  CONTENTS
  2 .highcode     0000001c  20000000  000000a0  00002000  2**1
                  CONTENTS, ALLOC, LOAD, READONLY, CODE
  3 .text         00002640  000000bc  000000bc  000020bc  2**2
                  CONTENTS, ALLOC, LOAD, READONLY, CODE
  4 .fini         00000000  000026fc  000026fc  00005058  2**0
                  CONTENTS, ALLOC, LOAD, CODE
  5 .init_array   00000004  000026fc  000026fc  000046fc  2**2
                  CONTENTS, ALLOC, LOAD, DATA
  6 .dalign       00000000  2000001c  2000001c  00005058  2**0
                  CONTENTS
  7 .dlalign      00000000  00002700  00002700  00005058  2**0
                  CONTENTS
  8 .data         0000003c  2000001c  00002700  0000501c  2**2
                  CONTENTS, ALLOC, LOAD, DATA
  9 .bss          00000028  20000058  0000273c  00005058  2**3
                  ALLOC
 10 .stack        00000100  20000700  20000700  00005700  2**0
                  ALLOC
 11 .debug_info   0000af9d  00000000  00000000  00005058  2**0
                  CONTENTS, READONLY, DEBUGGING
 12 .debug_abbrev 0000212f  00000000  00000000  0000fff5  2**0
                  CONTENTS, READONLY, DEBUGGING
 13 .debug_aranges 000006d8  00000000  00000000  00012128  2**3
                  CONTENTS, READONLY, DEBUGGING
 14 .debug_ranges 00000610  00000000  00000000  00012800  2**3
                  CONTENTS, READONLY, DEBUGGING
 15 .debug_line   00006747  00000000  00000000  00012e10  2**0
                  CONTENTS, READONLY, DEBUGGING
 16 .debug_str    000023d9  00000000  00000000  00019557  2**0
                  CONTENTS, READONLY, DEBUGGING
 17 .comment      00000033  00000000  00000000  0001b930  2**0
                  CONTENTS, READONLY
 18 .debug_frame  000014dc  00000000  00000000  0001b964  2**2
                  CONTENTS, READONLY, DEBUGGING
SYMBOL TABLE:
00000000 l    d  .init	00000000 .init
000000a0 l    d  .highcodelalign	00000000 .highcodelalign
20000000 l    d  .highcode	00000000 .highcode
000000bc l    d  .text	00000000 .text
000026fc l    d  .fini	00000000 .fini
000026fc l    d  .init_array	00000000 .init_array
2000001c l    d  .dalign	00000000 .dalign
00002700 l    d  .dlalign	00000000 .dlalign
2000001c l    d  .data	00000000 .data
20000058 l    d  .bss	00000000 .bss
20000700 l    d  .stack	00000000 .stack
00000000 l    d  .debug_info	00000000 .debug_info
00000000 l    d  .debug_abbrev	00000000 .debug_abbrev
00000000 l    d  .debug_aranges	00000000 .debug_aranges
00000000 l    d  .debug_ranges	00000000 .debug_ranges
00000000 l    d  .debug_line	00000000 .debug_line
00000000 l    d  .debug_str	00000000 .debug_str
00000000 l    d  .comment	00000000 .comment
00000000 l    d  .debug_frame	00000000 .debug_frame
00000000 l    df *ABS*	00000000 core_riscv.c
00000000 l    df *ABS*	00000000 buzzer.c
00000000 l    df *ABS*	00000000 ch32v00x_it.c
00000000 l    df *ABS*	00000000 main.cpp
00000c68 l     F .text	0000003a __static_initialization_and_destruction_0(int, int)
00000ca2 l     F .text	0000001a _GLOBAL__sub_I_b
00000000 l    df *ABS*	00000000 system_ch32v00x.c
00000e4e l     F .text	00000060 SetSysClock
00000eae l     F .text	00000038 SetSysClockTo_8MHz_HSI
00000000 l    df *ABS*	00000000 ch32v00x_exti.c
00000000 l    df *ABS*	00000000 ch32v00x_gpio.c
00000000 l    df *ABS*	00000000 ch32v00x_misc.c
00000000 l    df *ABS*	00000000 ch32v00x_pwr.c
00000000 l    df *ABS*	00000000 ch32v00x_rcc.c
20000030 l     O .data	00000010 APBAHBPrescTable
20000040 l     O .data	00000014 ADCPrescTable
00000000 l    df *ABS*	00000000 ch32v00x_usart.c
00000000 l    df *ABS*	00000000 debug.c
2000007c l     O .bss	00000001 p_us
2000007e l     O .bss	00000002 p_ms
00000000 l    df *ABS*	00000000 wchprintf.c
0000226e  w    F .text	00000004 printDouble
0000151a g     F .text	0000032e PWR_EnterSTANDBYMode
0000041e  w    F .text	00000022 uButtonVirt::hasClicks()
0000089e g     F .text	00000054 EXTI_INT_INIT()
0000047a  w    F .text	000000bc uButtonVirt::pollDebounce(bool)
00002272  w    F .text	00000352 print
000025c4  w    F .text	00000022 printf
20000858 g       .data	00000000 __global_pointer$
00000ee6  w      .text	00000000 TIM1_CC_IRQHandler
0000027e g     F .text	00000020 HardFault_Handler
20000060 g     O .bss	00000018 b
00000330  w    F .text	00000022 uButtonVirt::press()
0000215c  w    F .text	0000010e printInt
0000029e g     F .text	0000004c SysTick_Handler
00000ee6  w      .text	00000000 PVD_IRQHandler
0000026c g     F .text	00000012 NMI_Handler
000002ea  w    F .text	00000046 uButtonVirt::uButtonVirt()
00001d90 g     F .text	00000044 USART_GetFlagStatus
20000058 g       .bss	00000000 _sbss
00000100 g       *ABS*	00000000 __stack_size
00001f22 g     F .text	0000008e USART_Printf_Init
000012b6 g     F .text	000001e6 GPIO_PinRemapConfig
0000226a  w    F .text	00000004 printLongLongInt
000003fc  w    F .text	00000022 uButtonVirt::release()
000025e6 g     F .text	0000004a puts
2000001c g     O .data	00000004 SystemCoreClock
000000dc g     F .text	0000002c .hidden __udivsi3
000000a0 g       .init	00000000 _einit
00001a4a g     F .text	00000046 RCC_APB2PeriphClockCmd
00001108 g     F .text	0000013c GPIO_Init
20000078 g     O .bss	00000004 NVIC_Priority_Group
00000ee6  w      .text	00000000 SPI1_IRQHandler
00001d0c g     F .text	00000058 USART_Cmd
00000ee6  w      .text	00000000 AWU_IRQHandler
00000ee6  w      .text	00000000 EXTI7_0_IRQHandler
00000828  w    F .text	0000001e uButton::uButton()
000001b2 g     F .text	000000ba tone1
00001a90 g     F .text	00000046 RCC_APB1PeriphClockCmd
20000700 g       .stack	00000000 _heap_end
00000ee6  w      .text	00000000 DMA1_Channel4_IRQHandler
00000ee6  w      .text	00000000 ADC1_IRQHandler
000003da  w    F .text	00000022 uButtonVirt::releaseStep()
00000828  w    F .text	0000001e uButton::uButton()
20000080 g       .bss	00000000 _ebss
00000ee6  w      .text	00000000 DMA1_Channel7_IRQHandler
000007c6  w    F .text	0000003c uButtonVirt::_getTime()
00001e58 g     F .text	00000050 Delay_Init
00000352  w    F .text	00000022 uButtonVirt::click()
0000127e g     F .text	00000038 GPIO_WriteBit
00000108 g     F .text	00000008 .hidden __umodsi3
00000ee6  w      .text	00000000 I2C1_EV_IRQHandler
00000c26 g     F .text	00000042 gotoDeepSleep
00000396  w    F .text	00000022 uButtonVirt::releaseHold()
00001890 g     F .text	000001ba RCC_GetClocksFreq
00000ee6  w      .text	00000000 DMA1_Channel6_IRQHandler
00001ad6 g     F .text	00000236 USART_Init
00000ee6  w      .text	00000000 RCC_IRQHandler
00000ee6  w      .text	00000000 TIM1_TRG_COM_IRQHandler
00000846  w    F .text	0000002e uButton::tick()
00000ee6  w      .text	00000000 DMA1_Channel1_IRQHandler
00000000 g       .init	00000000 _start
20000020 g     O .data	00000010 AHBPrescTable
00002076  w    F .text	000000e6 prints
20000000 g       .highcode	00000000 _highcode_vma_start
00000f98 g     F .text	00000170 EXTI_Init
000000bc g     F .text	00000014 .hidden __mulsi3
000002ea  w    F .text	00000046 uButtonVirt::uButtonVirt()
20000000 g     F .highcode	0000001a WFE
2000001c g       .dalign	00000000 _data_vma
0000149c g     F .text	00000064 GPIO_EXTILineConfig
00000374  w    F .text	00000022 uButtonVirt::hold()
00001848 g     F .text	00000048 RCC_AdjustHSICalibrationValue
000008f2 g     F .text	00000334 main
00000440  w    F .text	00000022 uButtonVirt::timeout()
00000152 g     F .text	00000060 delayUsTone
00000ee6  w      .text	00000000 DMA1_Channel5_IRQHandler
00000802  w    F .text	00000026 uButtonVirt::_resetTime()
000000d4 g     F .text	00000058 .hidden __divsi3
000003b8  w    F .text	00000022 uButtonVirt::step()
00001ea8 g     F .text	0000007a Delay_Ms
000000a0 g       .highcodelalign	00000000 _highcode_lma
00000cbc g     F .text	00000080 SystemInit
00001dd4 g     F .text	00000084 delay
00000536  w    F .text	00000290 uButtonVirt::poll(bool)
0000202e  w    F .text	00000048 printchar
00000462  w    F .text	00000018 uButtonVirt::getClicks()
00000000 g       .init	00000000 _sinit
00000ee6  w      .text	00000000 DMA1_Channel3_IRQHandler
00000ee6  w      .text	00000000 TIM1_UP_IRQHandler
00000ee6  w      .text	00000000 WWDG_IRQHandler
00000ee6  w      .text	00000000 TIM2_IRQHandler
20000800 g       .stack	00000000 _eusrstack
20000058 g     O .bss	00000008 millisec
00000ee6  w      .text	00000000 SW_Handler
00000ee6  w      .text	00000000 TIM1_BRK_IRQHandler
00001d64 g     F .text	0000002c USART_SendData
00000874  w    F .text	0000002a uButton::readButton()
00001fb0 g     F .text	0000007e _write
20000058 g       .data	00000000 _edata
20000080 g       .bss	00000000 _end
2000001c g       .highcode	00000000 _highcode_vma_end
00002700 g       .dlalign	00000000 _data_lma
00000d3c g     F .text	00000112 SystemCoreClockUpdate
0000012c g     F .text	00000024 .hidden __modsi3
00000ee6  w      .text	00000000 DMA1_Channel2_IRQHandler
00000ee8  w      .text	00000000 handle_reset
00000ee6  w      .text	00000000 FLASH_IRQHandler
00000ee6  w      .text	00000000 USART1_IRQHandler
00000ee6  w      .text	00000000 I2C1_ER_IRQHandler
00001500 g     F .text	0000001a NVIC_PriorityGroupConfig
00001244 g     F .text	0000003a GPIO_ReadInputDataBit



Disassembly of section .init:

00000000 <_sinit>:
   0:	6e90006f          	j	ee8 <handle_reset>
   4:	0000                	unimp
   6:	0000                	unimp
   8:	026c                	addi	a1,sp,268
   a:	0000                	unimp
   c:	027e                	slli	tp,tp,0x1f
	...
  2e:	0000                	unimp
  30:	029e                	slli	t0,t0,0x7
  32:	0000                	unimp
  34:	0000                	unimp
  36:	0000                	unimp
  38:	0ee6                	slli	t4,t4,0x19
  3a:	0000                	unimp
  3c:	0000                	unimp
  3e:	0000                	unimp
  40:	0ee6                	slli	t4,t4,0x19
  42:	0000                	unimp
  44:	0ee6                	slli	t4,t4,0x19
  46:	0000                	unimp
  48:	0ee6                	slli	t4,t4,0x19
  4a:	0000                	unimp
  4c:	0ee6                	slli	t4,t4,0x19
  4e:	0000                	unimp
  50:	0ee6                	slli	t4,t4,0x19
  52:	0000                	unimp
  54:	0ee6                	slli	t4,t4,0x19
  56:	0000                	unimp
  58:	0ee6                	slli	t4,t4,0x19
  5a:	0000                	unimp
  5c:	0ee6                	slli	t4,t4,0x19
  5e:	0000                	unimp
  60:	0ee6                	slli	t4,t4,0x19
  62:	0000                	unimp
  64:	0ee6                	slli	t4,t4,0x19
  66:	0000                	unimp
  68:	0ee6                	slli	t4,t4,0x19
  6a:	0000                	unimp
  6c:	0ee6                	slli	t4,t4,0x19
  6e:	0000                	unimp
  70:	0ee6                	slli	t4,t4,0x19
  72:	0000                	unimp
  74:	0ee6                	slli	t4,t4,0x19
  76:	0000                	unimp
  78:	0ee6                	slli	t4,t4,0x19
  7a:	0000                	unimp
  7c:	0ee6                	slli	t4,t4,0x19
  7e:	0000                	unimp
  80:	0ee6                	slli	t4,t4,0x19
  82:	0000                	unimp
  84:	0ee6                	slli	t4,t4,0x19
  86:	0000                	unimp
  88:	0ee6                	slli	t4,t4,0x19
  8a:	0000                	unimp
  8c:	0ee6                	slli	t4,t4,0x19
  8e:	0000                	unimp
  90:	0ee6                	slli	t4,t4,0x19
  92:	0000                	unimp
  94:	0ee6                	slli	t4,t4,0x19
  96:	0000                	unimp
  98:	0ee6                	slli	t4,t4,0x19
  9a:	0000                	unimp
  9c:	0000                	unimp
	...

Disassembly of section .highcode:

20000000 <WFE>:
20000000:	1161                	addi	sp,sp,-8
20000002:	c222                	sw	s0,4(sp)
20000004:	0020                	addi	s0,sp,8
20000006:	fea42c23          	sw	a0,-8(s0)
2000000a:	10500073          	wfi
2000000e:	157d                	addi	a0,a0,-1
20000010:	fd7d                	bnez	a0,2000000e <WFE+0xe>
20000012:	0001                	nop
20000014:	4412                	lw	s0,4(sp)
20000016:	0121                	addi	sp,sp,8
20000018:	8082                	ret
	...

Disassembly of section .text:

000000bc <__mulsi3>:
      bc:	862a                	mv	a2,a0
      be:	4501                	li	a0,0
      c0:	0015f693          	andi	a3,a1,1
      c4:	c291                	beqz	a3,c8 <__mulsi3+0xc>
      c6:	9532                	add	a0,a0,a2
      c8:	8185                	srli	a1,a1,0x1
      ca:	0606                	slli	a2,a2,0x1
      cc:	f9f5                	bnez	a1,c0 <__mulsi3+0x4>
      ce:	8082                	ret
      d0:	0000                	unimp
	...

000000d4 <__divsi3>:
      d4:	02054e63          	bltz	a0,110 <__umodsi3+0x8>
      d8:	0405c363          	bltz	a1,11e <__umodsi3+0x16>

000000dc <__udivsi3>:
      dc:	862e                	mv	a2,a1
      de:	85aa                	mv	a1,a0
      e0:	557d                	li	a0,-1
      e2:	c215                	beqz	a2,106 <__stack_size+0x6>
      e4:	4685                	li	a3,1
      e6:	00b67863          	bgeu	a2,a1,f6 <__udivsi3+0x1a>
      ea:	00c05663          	blez	a2,f6 <__udivsi3+0x1a>
      ee:	0606                	slli	a2,a2,0x1
      f0:	0686                	slli	a3,a3,0x1
      f2:	feb66ce3          	bltu	a2,a1,ea <__udivsi3+0xe>
      f6:	4501                	li	a0,0
      f8:	00c5e463          	bltu	a1,a2,100 <__stack_size>
      fc:	8d91                	sub	a1,a1,a2
      fe:	8d55                	or	a0,a0,a3
     100:	8285                	srli	a3,a3,0x1
     102:	8205                	srli	a2,a2,0x1
     104:	faf5                	bnez	a3,f8 <__udivsi3+0x1c>
     106:	8082                	ret

00000108 <__umodsi3>:
     108:	8286                	mv	t0,ra
     10a:	3fc9                	jal	dc <__udivsi3>
     10c:	852e                	mv	a0,a1
     10e:	8282                	jr	t0
     110:	40a00533          	neg	a0,a0
     114:	0005d763          	bgez	a1,122 <__umodsi3+0x1a>
     118:	40b005b3          	neg	a1,a1
     11c:	b7c1                	j	dc <__udivsi3>
     11e:	40b005b3          	neg	a1,a1
     122:	8286                	mv	t0,ra
     124:	3f65                	jal	dc <__udivsi3>
     126:	40a00533          	neg	a0,a0
     12a:	8282                	jr	t0

0000012c <__modsi3>:
     12c:	8286                	mv	t0,ra
     12e:	0005c763          	bltz	a1,13c <__modsi3+0x10>
     132:	00054963          	bltz	a0,144 <__modsi3+0x18>
     136:	375d                	jal	dc <__udivsi3>
     138:	852e                	mv	a0,a1
     13a:	8282                	jr	t0
     13c:	40b005b3          	neg	a1,a1
     140:	fe055be3          	bgez	a0,136 <__modsi3+0xa>
     144:	40a00533          	neg	a0,a0
     148:	3f51                	jal	dc <__udivsi3>
     14a:	40b00533          	neg	a0,a1
     14e:	8282                	jr	t0
	...

00000152 <delayUsTone>:
     152:	1151                	addi	sp,sp,-12
     154:	c422                	sw	s0,8(sp)
     156:	0060                	addi	s0,sp,12
     158:	fea42a23          	sw	a0,-12(s0)
     15c:	e000f7b7          	lui	a5,0xe000f
     160:	43d8                	lw	a4,4(a5)
     162:	e000f7b7          	lui	a5,0xe000f
     166:	9b79                	andi	a4,a4,-2
     168:	c3d8                	sw	a4,4(a5)
     16a:	ff442783          	lw	a5,-12(s0)
     16e:	fef42c23          	sw	a5,-8(s0)
     172:	e000f7b7          	lui	a5,0xe000f
     176:	00989737          	lui	a4,0x989
     17a:	67f70713          	addi	a4,a4,1663 # 98967f <_data_lma+0x986f7f>
     17e:	cb98                	sw	a4,16(a5)
     180:	e000f7b7          	lui	a5,0xe000f
     184:	0007a423          	sw	zero,8(a5) # e000f008 <__global_pointer$+0xc000e7b0>
     188:	0001                	nop
     18a:	e000f7b7          	lui	a5,0xe000f
     18e:	479c                	lw	a5,8(a5)
     190:	ff842703          	lw	a4,-8(s0)
     194:	fef77be3          	bgeu	a4,a5,18a <delayUsTone+0x38>
     198:	e000f7b7          	lui	a5,0xe000f
     19c:	3e700713          	li	a4,999
     1a0:	cb98                	sw	a4,16(a5)
     1a2:	e000f7b7          	lui	a5,0xe000f
     1a6:	0007a423          	sw	zero,8(a5) # e000f008 <__global_pointer$+0xc000e7b0>
     1aa:	0001                	nop
     1ac:	4422                	lw	s0,8(sp)
     1ae:	0131                	addi	sp,sp,12
     1b0:	8082                	ret

000001b2 <tone1>:
     1b2:	1101                	addi	sp,sp,-32
     1b4:	ce06                	sw	ra,28(sp)
     1b6:	cc22                	sw	s0,24(sp)
     1b8:	1000                	addi	s0,sp,32
     1ba:	87aa                	mv	a5,a0
     1bc:	872e                	mv	a4,a1
     1be:	fef41123          	sh	a5,-30(s0)
     1c2:	87ba                	mv	a5,a4
     1c4:	fef41023          	sh	a5,-32(s0)
     1c8:	fe245783          	lhu	a5,-30(s0)
     1cc:	ef89                	bnez	a5,1e6 <tone1+0x34>
     1ce:	4601                	li	a2,0
     1d0:	4589                	li	a1,2
     1d2:	40011537          	lui	a0,0x40011
     1d6:	0a8010ef          	jal	ra,127e <GPIO_WriteBit>
     1da:	fe045783          	lhu	a5,-32(s0)
     1de:	853e                	mv	a0,a5
     1e0:	3f5010ef          	jal	ra,1dd4 <delay>
     1e4:	a041                	j	264 <tone1+0xb2>
     1e6:	fe245703          	lhu	a4,-30(s0)
     1ea:	000f47b7          	lui	a5,0xf4
     1ee:	85ba                	mv	a1,a4
     1f0:	24078513          	addi	a0,a5,576 # f4240 <_data_lma+0xf1b40>
     1f4:	35e5                	jal	dc <__udivsi3>
     1f6:	87aa                	mv	a5,a0
     1f8:	fef42623          	sw	a5,-20(s0)
     1fc:	fec42783          	lw	a5,-20(s0)
     200:	8385                	srli	a5,a5,0x1
     202:	fef42423          	sw	a5,-24(s0)
     206:	fe045703          	lhu	a4,-32(s0)
     20a:	87ba                	mv	a5,a4
     20c:	0796                	slli	a5,a5,0x5
     20e:	8f99                	sub	a5,a5,a4
     210:	078a                	slli	a5,a5,0x2
     212:	97ba                	add	a5,a5,a4
     214:	078e                	slli	a5,a5,0x3
     216:	fec42583          	lw	a1,-20(s0)
     21a:	853e                	mv	a0,a5
     21c:	35c1                	jal	dc <__udivsi3>
     21e:	87aa                	mv	a5,a0
     220:	fef42223          	sw	a5,-28(s0)
     224:	fe042823          	sw	zero,-16(s0)
     228:	a805                	j	258 <tone1+0xa6>
     22a:	4605                	li	a2,1
     22c:	4589                	li	a1,2
     22e:	40011537          	lui	a0,0x40011
     232:	04c010ef          	jal	ra,127e <GPIO_WriteBit>
     236:	fe842503          	lw	a0,-24(s0)
     23a:	3f21                	jal	152 <delayUsTone>
     23c:	4601                	li	a2,0
     23e:	4589                	li	a1,2
     240:	40011537          	lui	a0,0x40011
     244:	03a010ef          	jal	ra,127e <GPIO_WriteBit>
     248:	fe842503          	lw	a0,-24(s0)
     24c:	3719                	jal	152 <delayUsTone>
     24e:	ff042783          	lw	a5,-16(s0)
     252:	0785                	addi	a5,a5,1
     254:	fef42823          	sw	a5,-16(s0)
     258:	ff042703          	lw	a4,-16(s0)
     25c:	fe442783          	lw	a5,-28(s0)
     260:	fcf765e3          	bltu	a4,a5,22a <tone1+0x78>
     264:	40f2                	lw	ra,28(sp)
     266:	4462                	lw	s0,24(sp)
     268:	6105                	addi	sp,sp,32
     26a:	8082                	ret

0000026c <NMI_Handler>:
     26c:	1171                	addi	sp,sp,-4
     26e:	c022                	sw	s0,0(sp)
     270:	0040                	addi	s0,sp,4
     272:	6789                	lui	a5,0x2
     274:	63078513          	addi	a0,a5,1584 # 2630 <puts+0x4a>
     278:	36e020ef          	jal	ra,25e6 <puts>
     27c:	bfdd                	j	272 <NMI_Handler+0x6>

0000027e <HardFault_Handler>:
     27e:	1171                	addi	sp,sp,-4
     280:	c022                	sw	s0,0(sp)
     282:	0040                	addi	s0,sp,4
     284:	e000e7b7          	lui	a5,0xe000e
     288:	beef0737          	lui	a4,0xbeef0
     28c:	08070713          	addi	a4,a4,128 # beef0080 <__global_pointer$+0x9eeef828>
     290:	c7b8                	sw	a4,72(a5)
     292:	6789                	lui	a5,0x2
     294:	64078513          	addi	a0,a5,1600 # 2640 <puts+0x5a>
     298:	34e020ef          	jal	ra,25e6 <puts>
     29c:	bfdd                	j	292 <HardFault_Handler+0x14>

0000029e <SysTick_Handler>:
     29e:	1171                	addi	sp,sp,-4
     2a0:	c022                	sw	s0,0(sp)
     2a2:	0040                	addi	s0,sp,4
     2a4:	200007b7          	lui	a5,0x20000
     2a8:	0587a703          	lw	a4,88(a5) # 20000058 <_edata>
     2ac:	05c7a783          	lw	a5,92(a5)
     2b0:	4505                	li	a0,1
     2b2:	4581                	li	a1,0
     2b4:	00a70633          	add	a2,a4,a0
     2b8:	8332                	mv	t1,a2
     2ba:	00e33333          	sltu	t1,t1,a4
     2be:	00b786b3          	add	a3,a5,a1
     2c2:	00d307b3          	add	a5,t1,a3
     2c6:	86be                	mv	a3,a5
     2c8:	8732                	mv	a4,a2
     2ca:	87b6                	mv	a5,a3
     2cc:	200006b7          	lui	a3,0x20000
     2d0:	04e6ac23          	sw	a4,88(a3) # 20000058 <_edata>
     2d4:	04f6ae23          	sw	a5,92(a3)
     2d8:	e000f7b7          	lui	a5,0xe000f
     2dc:	0007a223          	sw	zero,4(a5) # e000f004 <__global_pointer$+0xc000e7ac>
     2e0:	0001                	nop
     2e2:	4402                	lw	s0,0(sp)
     2e4:	0111                	addi	sp,sp,4
     2e6:	30200073          	mret

000002ea <uButtonVirt::uButtonVirt()>:
     2ea:	1161                	addi	sp,sp,-8
     2ec:	c222                	sw	s0,4(sp)
     2ee:	0020                	addi	s0,sp,8
     2f0:	fea42c23          	sw	a0,-8(s0)
     2f4:	ff842783          	lw	a5,-8(s0)
     2f8:	4681                	li	a3,0
     2fa:	4701                	li	a4,0
     2fc:	c394                	sw	a3,0(a5)
     2fe:	c3d8                	sw	a4,4(a5)
     300:	ff842783          	lw	a5,-8(s0)
     304:	c794                	sw	a3,8(a5)
     306:	c7d8                	sw	a4,12(a5)
     308:	ff842783          	lw	a5,-8(s0)
     30c:	00078823          	sb	zero,16(a5)
     310:	ff842783          	lw	a5,-8(s0)
     314:	000788a3          	sb	zero,17(a5)
     318:	ff842783          	lw	a5,-8(s0)
     31c:	00078923          	sb	zero,18(a5)
     320:	ff842783          	lw	a5,-8(s0)
     324:	000789a3          	sb	zero,19(a5)
     328:	0001                	nop
     32a:	4412                	lw	s0,4(sp)
     32c:	0121                	addi	sp,sp,8
     32e:	8082                	ret

00000330 <uButtonVirt::press()>:
     330:	1161                	addi	sp,sp,-8
     332:	c222                	sw	s0,4(sp)
     334:	0020                	addi	s0,sp,8
     336:	fea42c23          	sw	a0,-8(s0)
     33a:	ff842783          	lw	a5,-8(s0)
     33e:	2bbc                	lbu	a5,18(a5)
     340:	17fd                	addi	a5,a5,-1
     342:	0017b793          	seqz	a5,a5
     346:	0ff7f793          	andi	a5,a5,255
     34a:	853e                	mv	a0,a5
     34c:	4412                	lw	s0,4(sp)
     34e:	0121                	addi	sp,sp,8
     350:	8082                	ret

00000352 <uButtonVirt::click()>:
     352:	1161                	addi	sp,sp,-8
     354:	c222                	sw	s0,4(sp)
     356:	0020                	addi	s0,sp,8
     358:	fea42c23          	sw	a0,-8(s0)
     35c:	ff842783          	lw	a5,-8(s0)
     360:	2bbc                	lbu	a5,18(a5)
     362:	17f9                	addi	a5,a5,-2
     364:	0017b793          	seqz	a5,a5
     368:	0ff7f793          	andi	a5,a5,255
     36c:	853e                	mv	a0,a5
     36e:	4412                	lw	s0,4(sp)
     370:	0121                	addi	sp,sp,8
     372:	8082                	ret

00000374 <uButtonVirt::hold()>:
     374:	1161                	addi	sp,sp,-8
     376:	c222                	sw	s0,4(sp)
     378:	0020                	addi	s0,sp,8
     37a:	fea42c23          	sw	a0,-8(s0)
     37e:	ff842783          	lw	a5,-8(s0)
     382:	2bbc                	lbu	a5,18(a5)
     384:	17f1                	addi	a5,a5,-4
     386:	0017b793          	seqz	a5,a5
     38a:	0ff7f793          	andi	a5,a5,255
     38e:	853e                	mv	a0,a5
     390:	4412                	lw	s0,4(sp)
     392:	0121                	addi	sp,sp,8
     394:	8082                	ret

00000396 <uButtonVirt::releaseHold()>:
     396:	1161                	addi	sp,sp,-8
     398:	c222                	sw	s0,4(sp)
     39a:	0020                	addi	s0,sp,8
     39c:	fea42c23          	sw	a0,-8(s0)
     3a0:	ff842783          	lw	a5,-8(s0)
     3a4:	2bbc                	lbu	a5,18(a5)
     3a6:	17ed                	addi	a5,a5,-5
     3a8:	0017b793          	seqz	a5,a5
     3ac:	0ff7f793          	andi	a5,a5,255
     3b0:	853e                	mv	a0,a5
     3b2:	4412                	lw	s0,4(sp)
     3b4:	0121                	addi	sp,sp,8
     3b6:	8082                	ret

000003b8 <uButtonVirt::step()>:
     3b8:	1161                	addi	sp,sp,-8
     3ba:	c222                	sw	s0,4(sp)
     3bc:	0020                	addi	s0,sp,8
     3be:	fea42c23          	sw	a0,-8(s0)
     3c2:	ff842783          	lw	a5,-8(s0)
     3c6:	2bbc                	lbu	a5,18(a5)
     3c8:	17e5                	addi	a5,a5,-7
     3ca:	0017b793          	seqz	a5,a5
     3ce:	0ff7f793          	andi	a5,a5,255
     3d2:	853e                	mv	a0,a5
     3d4:	4412                	lw	s0,4(sp)
     3d6:	0121                	addi	sp,sp,8
     3d8:	8082                	ret

000003da <uButtonVirt::releaseStep()>:
     3da:	1161                	addi	sp,sp,-8
     3dc:	c222                	sw	s0,4(sp)
     3de:	0020                	addi	s0,sp,8
     3e0:	fea42c23          	sw	a0,-8(s0)
     3e4:	ff842783          	lw	a5,-8(s0)
     3e8:	2bbc                	lbu	a5,18(a5)
     3ea:	17dd                	addi	a5,a5,-9
     3ec:	0017b793          	seqz	a5,a5
     3f0:	0ff7f793          	andi	a5,a5,255
     3f4:	853e                	mv	a0,a5
     3f6:	4412                	lw	s0,4(sp)
     3f8:	0121                	addi	sp,sp,8
     3fa:	8082                	ret

000003fc <uButtonVirt::release()>:
     3fc:	1161                	addi	sp,sp,-8
     3fe:	c222                	sw	s0,4(sp)
     400:	0020                	addi	s0,sp,8
     402:	fea42c23          	sw	a0,-8(s0)
     406:	ff842783          	lw	a5,-8(s0)
     40a:	2bbc                	lbu	a5,18(a5)
     40c:	17d9                	addi	a5,a5,-10
     40e:	0017b793          	seqz	a5,a5
     412:	0ff7f793          	andi	a5,a5,255
     416:	853e                	mv	a0,a5
     418:	4412                	lw	s0,4(sp)
     41a:	0121                	addi	sp,sp,8
     41c:	8082                	ret

0000041e <uButtonVirt::hasClicks()>:
     41e:	1161                	addi	sp,sp,-8
     420:	c222                	sw	s0,4(sp)
     422:	0020                	addi	s0,sp,8
     424:	fea42c23          	sw	a0,-8(s0)
     428:	ff842783          	lw	a5,-8(s0)
     42c:	2bbc                	lbu	a5,18(a5)
     42e:	17d1                	addi	a5,a5,-12
     430:	0017b793          	seqz	a5,a5
     434:	0ff7f793          	andi	a5,a5,255
     438:	853e                	mv	a0,a5
     43a:	4412                	lw	s0,4(sp)
     43c:	0121                	addi	sp,sp,8
     43e:	8082                	ret

00000440 <uButtonVirt::timeout()>:
     440:	1161                	addi	sp,sp,-8
     442:	c222                	sw	s0,4(sp)
     444:	0020                	addi	s0,sp,8
     446:	fea42c23          	sw	a0,-8(s0)
     44a:	ff842783          	lw	a5,-8(s0)
     44e:	2bbc                	lbu	a5,18(a5)
     450:	17c9                	addi	a5,a5,-14
     452:	0017b793          	seqz	a5,a5
     456:	0ff7f793          	andi	a5,a5,255
     45a:	853e                	mv	a0,a5
     45c:	4412                	lw	s0,4(sp)
     45e:	0121                	addi	sp,sp,8
     460:	8082                	ret

00000462 <uButtonVirt::getClicks()>:
     462:	1161                	addi	sp,sp,-8
     464:	c222                	sw	s0,4(sp)
     466:	0020                	addi	s0,sp,8
     468:	fea42c23          	sw	a0,-8(s0)
     46c:	ff842783          	lw	a5,-8(s0)
     470:	3bbc                	lbu	a5,19(a5)
     472:	853e                	mv	a0,a5
     474:	4412                	lw	s0,4(sp)
     476:	0121                	addi	sp,sp,8
     478:	8082                	ret

0000047a <uButtonVirt::pollDebounce(bool)>:
     47a:	1131                	addi	sp,sp,-20
     47c:	c806                	sw	ra,16(sp)
     47e:	c622                	sw	s0,12(sp)
     480:	0840                	addi	s0,sp,20
     482:	fea42823          	sw	a0,-16(s0)
     486:	87ae                	mv	a5,a1
     488:	fef407a3          	sb	a5,-17(s0)
     48c:	ff042783          	lw	a5,-16(s0)
     490:	2b98                	lbu	a4,16(a5)
     492:	fef44783          	lbu	a5,-17(s0)
     496:	00f71963          	bne	a4,a5,4a8 <uButtonVirt::pollDebounce(bool)+0x2e>
     49a:	ff042783          	lw	a5,-16(s0)
     49e:	4681                	li	a3,0
     4a0:	4701                	li	a4,0
     4a2:	c794                	sw	a3,8(a5)
     4a4:	c7d8                	sw	a4,12(a5)
     4a6:	a0bd                	j	514 <uButtonVirt::pollDebounce(bool)+0x9a>
     4a8:	ff042783          	lw	a5,-16(s0)
     4ac:	4788                	lw	a0,8(a5)
     4ae:	47cc                	lw	a1,12(a5)
     4b0:	87aa                	mv	a5,a0
     4b2:	8fcd                	or	a5,a5,a1
     4b4:	ef91                	bnez	a5,4d0 <uButtonVirt::pollDebounce(bool)+0x56>
     4b6:	200007b7          	lui	a5,0x20000
     4ba:	0587a783          	lw	a5,88(a5) # 20000058 <_edata>
     4be:	833e                	mv	t1,a5
     4c0:	4381                	li	t2,0
     4c2:	ff042783          	lw	a5,-16(s0)
     4c6:	0067a423          	sw	t1,8(a5)
     4ca:	0077a623          	sw	t2,12(a5)
     4ce:	a099                	j	514 <uButtonVirt::pollDebounce(bool)+0x9a>
     4d0:	200007b7          	lui	a5,0x20000
     4d4:	0587a783          	lw	a5,88(a5) # 20000058 <_edata>
     4d8:	863e                	mv	a2,a5
     4da:	4681                	li	a3,0
     4dc:	ff042783          	lw	a5,-16(s0)
     4e0:	4788                	lw	a0,8(a5)
     4e2:	47cc                	lw	a1,12(a5)
     4e4:	40a60733          	sub	a4,a2,a0
     4e8:	833a                	mv	t1,a4
     4ea:	00663333          	sltu	t1,a2,t1
     4ee:	40b687b3          	sub	a5,a3,a1
     4f2:	406786b3          	sub	a3,a5,t1
     4f6:	87b6                	mv	a5,a3
     4f8:	86be                	mv	a3,a5
     4fa:	00d04863          	bgtz	a3,50a <uButtonVirt::pollDebounce(bool)+0x90>
     4fe:	86be                	mv	a3,a5
     500:	ea91                	bnez	a3,514 <uButtonVirt::pollDebounce(bool)+0x9a>
     502:	03100793          	li	a5,49
     506:	00e7f763          	bgeu	a5,a4,514 <uButtonVirt::pollDebounce(bool)+0x9a>
     50a:	fef44703          	lbu	a4,-17(s0)
     50e:	ff042783          	lw	a5,-16(s0)
     512:	ab98                	sb	a4,16(a5)
     514:	ff042783          	lw	a5,-16(s0)
     518:	2b9c                	lbu	a5,16(a5)
     51a:	00f037b3          	snez	a5,a5
     51e:	0ff7f793          	andi	a5,a5,255
     522:	85be                	mv	a1,a5
     524:	ff042503          	lw	a0,-16(s0)
     528:	2039                	jal	536 <uButtonVirt::poll(bool)>
     52a:	87aa                	mv	a5,a0
     52c:	853e                	mv	a0,a5
     52e:	40c2                	lw	ra,16(sp)
     530:	4432                	lw	s0,12(sp)
     532:	0151                	addi	sp,sp,20
     534:	8082                	ret

00000536 <uButtonVirt::poll(bool)>:
     536:	1121                	addi	sp,sp,-24
     538:	ca06                	sw	ra,20(sp)
     53a:	c822                	sw	s0,16(sp)
     53c:	0820                	addi	s0,sp,24
     53e:	fea42623          	sw	a0,-20(s0)
     542:	87ae                	mv	a5,a1
     544:	fef405a3          	sb	a5,-21(s0)
     548:	fec42783          	lw	a5,-20(s0)
     54c:	2bbc                	lbu	a5,18(a5)
     54e:	fef409a3          	sb	a5,-13(s0)
     552:	fec42783          	lw	a5,-20(s0)
     556:	2bbc                	lbu	a5,18(a5)
     558:	4739                	li	a4,14
     55a:	24f76663          	bltu	a4,a5,7a6 <uButtonVirt::poll(bool)+0x270>
     55e:	00279713          	slli	a4,a5,0x2
     562:	6789                	lui	a5,0x2
     564:	6b878793          	addi	a5,a5,1720 # 26b8 <puts+0xd2>
     568:	97ba                	add	a5,a5,a4
     56a:	439c                	lw	a5,0(a5)
     56c:	8782                	jr	a5
     56e:	feb44783          	lbu	a5,-21(s0)
     572:	20078f63          	beqz	a5,790 <uButtonVirt::poll(bool)+0x25a>
     576:	fec42783          	lw	a5,-20(s0)
     57a:	4705                	li	a4,1
     57c:	abb8                	sb	a4,18(a5)
     57e:	ac09                	j	790 <uButtonVirt::poll(bool)+0x25a>
     580:	fec42783          	lw	a5,-20(s0)
     584:	470d                	li	a4,3
     586:	abb8                	sb	a4,18(a5)
     588:	fec42503          	lw	a0,-20(s0)
     58c:	2c9d                	jal	802 <uButtonVirt::_resetTime()>
     58e:	ac21                	j	7a6 <uButtonVirt::poll(bool)+0x270>
     590:	feb44783          	lbu	a5,-21(s0)
     594:	0017c793          	xori	a5,a5,1
     598:	0ff7f793          	andi	a5,a5,255
     59c:	cf99                	beqz	a5,5ba <uButtonVirt::poll(bool)+0x84>
     59e:	fec42783          	lw	a5,-20(s0)
     5a2:	4709                	li	a4,2
     5a4:	abb8                	sb	a4,18(a5)
     5a6:	fec42783          	lw	a5,-20(s0)
     5aa:	3bbc                	lbu	a5,19(a5)
     5ac:	0785                	addi	a5,a5,1
     5ae:	0ff7f713          	andi	a4,a5,255
     5b2:	fec42783          	lw	a5,-20(s0)
     5b6:	bbb8                	sb	a4,19(a5)
     5b8:	aaf1                	j	794 <uButtonVirt::poll(bool)+0x25e>
     5ba:	fec42503          	lw	a0,-20(s0)
     5be:	2421                	jal	7c6 <uButtonVirt::_getTime()>
     5c0:	872a                	mv	a4,a0
     5c2:	87ae                	mv	a5,a1
     5c4:	4685                	li	a3,1
     5c6:	863e                	mv	a2,a5
     5c8:	00c04963          	bgtz	a2,5da <uButtonVirt::poll(bool)+0xa4>
     5cc:	863e                	mv	a2,a5
     5ce:	e609                	bnez	a2,5d8 <uButtonVirt::poll(bool)+0xa2>
     5d0:	3e700793          	li	a5,999
     5d4:	00e7e363          	bltu	a5,a4,5da <uButtonVirt::poll(bool)+0xa4>
     5d8:	4681                	li	a3,0
     5da:	0ff6f793          	andi	a5,a3,255
     5de:	1a078b63          	beqz	a5,794 <uButtonVirt::poll(bool)+0x25e>
     5e2:	fec42783          	lw	a5,-20(s0)
     5e6:	4711                	li	a4,4
     5e8:	abb8                	sb	a4,18(a5)
     5ea:	fec42503          	lw	a0,-20(s0)
     5ee:	2c11                	jal	802 <uButtonVirt::_resetTime()>
     5f0:	a255                	j	794 <uButtonVirt::poll(bool)+0x25e>
     5f2:	fec42783          	lw	a5,-20(s0)
     5f6:	4719                	li	a4,6
     5f8:	abb8                	sb	a4,18(a5)
     5fa:	a275                	j	7a6 <uButtonVirt::poll(bool)+0x270>
     5fc:	feb44783          	lbu	a5,-21(s0)
     600:	0017c793          	xori	a5,a5,1
     604:	0ff7f793          	andi	a5,a5,255
     608:	c791                	beqz	a5,614 <uButtonVirt::poll(bool)+0xde>
     60a:	fec42783          	lw	a5,-20(s0)
     60e:	4715                	li	a4,5
     610:	abb8                	sb	a4,18(a5)
     612:	a259                	j	798 <uButtonVirt::poll(bool)+0x262>
     614:	fec42503          	lw	a0,-20(s0)
     618:	227d                	jal	7c6 <uButtonVirt::_getTime()>
     61a:	872a                	mv	a4,a0
     61c:	87ae                	mv	a5,a1
     61e:	4685                	li	a3,1
     620:	863e                	mv	a2,a5
     622:	00c04963          	bgtz	a2,634 <uButtonVirt::poll(bool)+0xfe>
     626:	863e                	mv	a2,a5
     628:	e609                	bnez	a2,632 <uButtonVirt::poll(bool)+0xfc>
     62a:	18f00793          	li	a5,399
     62e:	00e7e363          	bltu	a5,a4,634 <uButtonVirt::poll(bool)+0xfe>
     632:	4681                	li	a3,0
     634:	0ff6f793          	andi	a5,a3,255
     638:	16078063          	beqz	a5,798 <uButtonVirt::poll(bool)+0x262>
     63c:	fec42783          	lw	a5,-20(s0)
     640:	471d                	li	a4,7
     642:	abb8                	sb	a4,18(a5)
     644:	fec42503          	lw	a0,-20(s0)
     648:	2a6d                	jal	802 <uButtonVirt::_resetTime()>
     64a:	a2b9                	j	798 <uButtonVirt::poll(bool)+0x262>
     64c:	fec42783          	lw	a5,-20(s0)
     650:	4721                	li	a4,8
     652:	abb8                	sb	a4,18(a5)
     654:	aa89                	j	7a6 <uButtonVirt::poll(bool)+0x270>
     656:	feb44783          	lbu	a5,-21(s0)
     65a:	0017c793          	xori	a5,a5,1
     65e:	0ff7f793          	andi	a5,a5,255
     662:	c791                	beqz	a5,66e <uButtonVirt::poll(bool)+0x138>
     664:	fec42783          	lw	a5,-20(s0)
     668:	4725                	li	a4,9
     66a:	abb8                	sb	a4,18(a5)
     66c:	aa05                	j	79c <uButtonVirt::poll(bool)+0x266>
     66e:	fec42503          	lw	a0,-20(s0)
     672:	2a91                	jal	7c6 <uButtonVirt::_getTime()>
     674:	872a                	mv	a4,a0
     676:	87ae                	mv	a5,a1
     678:	4685                	li	a3,1
     67a:	863e                	mv	a2,a5
     67c:	00c04963          	bgtz	a2,68e <uButtonVirt::poll(bool)+0x158>
     680:	863e                	mv	a2,a5
     682:	e609                	bnez	a2,68c <uButtonVirt::poll(bool)+0x156>
     684:	3e700793          	li	a5,999
     688:	00e7e363          	bltu	a5,a4,68e <uButtonVirt::poll(bool)+0x158>
     68c:	4681                	li	a3,0
     68e:	0ff6f793          	andi	a5,a3,255
     692:	10078563          	beqz	a5,79c <uButtonVirt::poll(bool)+0x266>
     696:	fec42783          	lw	a5,-20(s0)
     69a:	471d                	li	a4,7
     69c:	abb8                	sb	a4,18(a5)
     69e:	fec42783          	lw	a5,-20(s0)
     6a2:	3b9c                	lbu	a5,17(a5)
     6a4:	0785                	addi	a5,a5,1
     6a6:	0ff7f713          	andi	a4,a5,255
     6aa:	fec42783          	lw	a5,-20(s0)
     6ae:	bb98                	sb	a4,17(a5)
     6b0:	fec42503          	lw	a0,-20(s0)
     6b4:	22b9                	jal	802 <uButtonVirt::_resetTime()>
     6b6:	a0dd                	j	79c <uButtonVirt::poll(bool)+0x266>
     6b8:	fec42783          	lw	a5,-20(s0)
     6bc:	000789a3          	sb	zero,19(a5)
     6c0:	fec42783          	lw	a5,-20(s0)
     6c4:	4729                	li	a4,10
     6c6:	abb8                	sb	a4,18(a5)
     6c8:	a8f9                	j	7a6 <uButtonVirt::poll(bool)+0x270>
     6ca:	fec42783          	lw	a5,-20(s0)
     6ce:	000788a3          	sb	zero,17(a5)
     6d2:	fec42783          	lw	a5,-20(s0)
     6d6:	3bbc                	lbu	a5,19(a5)
     6d8:	c399                	beqz	a5,6de <uButtonVirt::poll(bool)+0x1a8>
     6da:	47ad                	li	a5,11
     6dc:	a011                	j	6e0 <uButtonVirt::poll(bool)+0x1aa>
     6de:	47b5                	li	a5,13
     6e0:	fec42703          	lw	a4,-20(s0)
     6e4:	ab3c                	sb	a5,18(a4)
     6e6:	fec42503          	lw	a0,-20(s0)
     6ea:	2a21                	jal	802 <uButtonVirt::_resetTime()>
     6ec:	a86d                	j	7a6 <uButtonVirt::poll(bool)+0x270>
     6ee:	feb44783          	lbu	a5,-21(s0)
     6f2:	c791                	beqz	a5,6fe <uButtonVirt::poll(bool)+0x1c8>
     6f4:	fec42783          	lw	a5,-20(s0)
     6f8:	4705                	li	a4,1
     6fa:	abb8                	sb	a4,18(a5)
     6fc:	a055                	j	7a0 <uButtonVirt::poll(bool)+0x26a>
     6fe:	fec42503          	lw	a0,-20(s0)
     702:	20d1                	jal	7c6 <uButtonVirt::_getTime()>
     704:	872a                	mv	a4,a0
     706:	87ae                	mv	a5,a1
     708:	4685                	li	a3,1
     70a:	863e                	mv	a2,a5
     70c:	00c04963          	bgtz	a2,71e <uButtonVirt::poll(bool)+0x1e8>
     710:	863e                	mv	a2,a5
     712:	e609                	bnez	a2,71c <uButtonVirt::poll(bool)+0x1e6>
     714:	1f300793          	li	a5,499
     718:	00e7e363          	bltu	a5,a4,71e <uButtonVirt::poll(bool)+0x1e8>
     71c:	4681                	li	a3,0
     71e:	0ff6f793          	andi	a5,a3,255
     722:	cfbd                	beqz	a5,7a0 <uButtonVirt::poll(bool)+0x26a>
     724:	fec42783          	lw	a5,-20(s0)
     728:	4731                	li	a4,12
     72a:	abb8                	sb	a4,18(a5)
     72c:	fec42503          	lw	a0,-20(s0)
     730:	28c9                	jal	802 <uButtonVirt::_resetTime()>
     732:	a0bd                	j	7a0 <uButtonVirt::poll(bool)+0x26a>
     734:	fec42783          	lw	a5,-20(s0)
     738:	000789a3          	sb	zero,19(a5)
     73c:	fec42783          	lw	a5,-20(s0)
     740:	4735                	li	a4,13
     742:	abb8                	sb	a4,18(a5)
     744:	a08d                	j	7a6 <uButtonVirt::poll(bool)+0x270>
     746:	feb44783          	lbu	a5,-21(s0)
     74a:	c791                	beqz	a5,756 <uButtonVirt::poll(bool)+0x220>
     74c:	fec42783          	lw	a5,-20(s0)
     750:	4705                	li	a4,1
     752:	abb8                	sb	a4,18(a5)
     754:	a881                	j	7a4 <uButtonVirt::poll(bool)+0x26e>
     756:	fec42503          	lw	a0,-20(s0)
     75a:	20b5                	jal	7c6 <uButtonVirt::_getTime()>
     75c:	872a                	mv	a4,a0
     75e:	87ae                	mv	a5,a1
     760:	4685                	li	a3,1
     762:	863e                	mv	a2,a5
     764:	00c04963          	bgtz	a2,776 <uButtonVirt::poll(bool)+0x240>
     768:	863e                	mv	a2,a5
     76a:	e609                	bnez	a2,774 <uButtonVirt::poll(bool)+0x23e>
     76c:	3e700793          	li	a5,999
     770:	00e7e363          	bltu	a5,a4,776 <uButtonVirt::poll(bool)+0x240>
     774:	4681                	li	a3,0
     776:	0ff6f793          	andi	a5,a3,255
     77a:	c78d                	beqz	a5,7a4 <uButtonVirt::poll(bool)+0x26e>
     77c:	fec42783          	lw	a5,-20(s0)
     780:	4739                	li	a4,14
     782:	abb8                	sb	a4,18(a5)
     784:	a005                	j	7a4 <uButtonVirt::poll(bool)+0x26e>
     786:	fec42783          	lw	a5,-20(s0)
     78a:	00078923          	sb	zero,18(a5)
     78e:	a821                	j	7a6 <uButtonVirt::poll(bool)+0x270>
     790:	0001                	nop
     792:	a811                	j	7a6 <uButtonVirt::poll(bool)+0x270>
     794:	0001                	nop
     796:	a801                	j	7a6 <uButtonVirt::poll(bool)+0x270>
     798:	0001                	nop
     79a:	a031                	j	7a6 <uButtonVirt::poll(bool)+0x270>
     79c:	0001                	nop
     79e:	a021                	j	7a6 <uButtonVirt::poll(bool)+0x270>
     7a0:	0001                	nop
     7a2:	a011                	j	7a6 <uButtonVirt::poll(bool)+0x270>
     7a4:	0001                	nop
     7a6:	fec42783          	lw	a5,-20(s0)
     7aa:	2bbc                	lbu	a5,18(a5)
     7ac:	ff344703          	lbu	a4,-13(s0)
     7b0:	40f707b3          	sub	a5,a4,a5
     7b4:	00f037b3          	snez	a5,a5
     7b8:	0ff7f793          	andi	a5,a5,255
     7bc:	853e                	mv	a0,a5
     7be:	40d2                	lw	ra,20(sp)
     7c0:	4442                	lw	s0,16(sp)
     7c2:	0161                	addi	sp,sp,24
     7c4:	8082                	ret

000007c6 <uButtonVirt::_getTime()>:
     7c6:	1161                	addi	sp,sp,-8
     7c8:	c222                	sw	s0,4(sp)
     7ca:	0020                	addi	s0,sp,8
     7cc:	fea42c23          	sw	a0,-8(s0)
     7d0:	200007b7          	lui	a5,0x20000
     7d4:	0587a783          	lw	a5,88(a5) # 20000058 <_edata>
     7d8:	863e                	mv	a2,a5
     7da:	4681                	li	a3,0
     7dc:	ff842783          	lw	a5,-8(s0)
     7e0:	4388                	lw	a0,0(a5)
     7e2:	43cc                	lw	a1,4(a5)
     7e4:	40a60733          	sub	a4,a2,a0
     7e8:	833a                	mv	t1,a4
     7ea:	00663333          	sltu	t1,a2,t1
     7ee:	40b687b3          	sub	a5,a3,a1
     7f2:	406786b3          	sub	a3,a5,t1
     7f6:	87b6                	mv	a5,a3
     7f8:	853a                	mv	a0,a4
     7fa:	85be                	mv	a1,a5
     7fc:	4412                	lw	s0,4(sp)
     7fe:	0121                	addi	sp,sp,8
     800:	8082                	ret

00000802 <uButtonVirt::_resetTime()>:
     802:	1161                	addi	sp,sp,-8
     804:	c222                	sw	s0,4(sp)
     806:	0020                	addi	s0,sp,8
     808:	fea42c23          	sw	a0,-8(s0)
     80c:	200006b7          	lui	a3,0x20000
     810:	0586a683          	lw	a3,88(a3) # 20000058 <_edata>
     814:	8736                	mv	a4,a3
     816:	4781                	li	a5,0
     818:	ff842683          	lw	a3,-8(s0)
     81c:	c298                	sw	a4,0(a3)
     81e:	c2dc                	sw	a5,4(a3)
     820:	0001                	nop
     822:	4412                	lw	s0,4(sp)
     824:	0121                	addi	sp,sp,8
     826:	8082                	ret

00000828 <uButton::uButton()>:
     828:	1141                	addi	sp,sp,-16
     82a:	c606                	sw	ra,12(sp)
     82c:	c422                	sw	s0,8(sp)
     82e:	0800                	addi	s0,sp,16
     830:	fea42823          	sw	a0,-16(s0)
     834:	ff042783          	lw	a5,-16(s0)
     838:	853e                	mv	a0,a5
     83a:	3c45                	jal	2ea <uButtonVirt::uButtonVirt()>
     83c:	0001                	nop
     83e:	40b2                	lw	ra,12(sp)
     840:	4422                	lw	s0,8(sp)
     842:	0141                	addi	sp,sp,16
     844:	8082                	ret

00000846 <uButton::tick()>:
     846:	1141                	addi	sp,sp,-16
     848:	c606                	sw	ra,12(sp)
     84a:	c422                	sw	s0,8(sp)
     84c:	c226                	sw	s1,4(sp)
     84e:	0800                	addi	s0,sp,16
     850:	fea42823          	sw	a0,-16(s0)
     854:	ff042483          	lw	s1,-16(s0)
     858:	ff042503          	lw	a0,-16(s0)
     85c:	2821                	jal	874 <uButton::readButton()>
     85e:	87aa                	mv	a5,a0
     860:	85be                	mv	a1,a5
     862:	8526                	mv	a0,s1
     864:	3919                	jal	47a <uButtonVirt::pollDebounce(bool)>
     866:	87aa                	mv	a5,a0
     868:	853e                	mv	a0,a5
     86a:	40b2                	lw	ra,12(sp)
     86c:	4422                	lw	s0,8(sp)
     86e:	4492                	lw	s1,4(sp)
     870:	0141                	addi	sp,sp,16
     872:	8082                	ret

00000874 <uButton::readButton()>:
     874:	1141                	addi	sp,sp,-16
     876:	c606                	sw	ra,12(sp)
     878:	c422                	sw	s0,8(sp)
     87a:	0800                	addi	s0,sp,16
     87c:	fea42823          	sw	a0,-16(s0)
     880:	45c1                	li	a1,16
     882:	40011537          	lui	a0,0x40011
     886:	1bf000ef          	jal	ra,1244 <GPIO_ReadInputDataBit>
     88a:	87aa                	mv	a5,a0
     88c:	0017b793          	seqz	a5,a5
     890:	0ff7f793          	andi	a5,a5,255
     894:	853e                	mv	a0,a5
     896:	40b2                	lw	ra,12(sp)
     898:	4422                	lw	s0,8(sp)
     89a:	0141                	addi	sp,sp,16
     89c:	8082                	ret

0000089e <EXTI_INT_INIT()>:
     89e:	1111                	addi	sp,sp,-28
     8a0:	cc06                	sw	ra,24(sp)
     8a2:	ca22                	sw	s0,20(sp)
     8a4:	0860                	addi	s0,sp,28
     8a6:	fe042223          	sw	zero,-28(s0)
     8aa:	fe042423          	sw	zero,-24(s0)
     8ae:	fe042623          	sw	zero,-20(s0)
     8b2:	fe042823          	sw	zero,-16(s0)
     8b6:	4585                	li	a1,1
     8b8:	4545                	li	a0,17
     8ba:	190010ef          	jal	ra,1a4a <RCC_APB2PeriphClockCmd>
     8be:	4591                	li	a1,4
     8c0:	4509                	li	a0,2
     8c2:	3db000ef          	jal	ra,149c <GPIO_EXTILineConfig>
     8c6:	47c1                	li	a5,16
     8c8:	fef42223          	sw	a5,-28(s0)
     8cc:	4791                	li	a5,4
     8ce:	fef42423          	sw	a5,-24(s0)
     8d2:	47c1                	li	a5,16
     8d4:	fef42623          	sw	a5,-20(s0)
     8d8:	4785                	li	a5,1
     8da:	fef42823          	sw	a5,-16(s0)
     8de:	fe440793          	addi	a5,s0,-28
     8e2:	853e                	mv	a0,a5
     8e4:	6b4000ef          	jal	ra,f98 <EXTI_Init>
     8e8:	0001                	nop
     8ea:	40e2                	lw	ra,24(sp)
     8ec:	4452                	lw	s0,20(sp)
     8ee:	0171                	addi	sp,sp,28
     8f0:	8082                	ret

000008f2 <main>:
     8f2:	1111                	addi	sp,sp,-28
     8f4:	cc06                	sw	ra,24(sp)
     8f6:	ca22                	sw	s0,20(sp)
     8f8:	0860                	addi	s0,sp,28
     8fa:	fe042223          	sw	zero,-28(s0)
     8fe:	fe042423          	sw	zero,-24(s0)
     902:	fe042623          	sw	zero,-20(s0)
     906:	4505                	li	a0,1
     908:	3f9000ef          	jal	ra,1500 <NVIC_PriorityGroupConfig>
     90c:	2905                	jal	d3c <SystemCoreClockUpdate>
     90e:	54a010ef          	jal	ra,1e58 <Delay_Init>
     912:	1f400513          	li	a0,500
     916:	592010ef          	jal	ra,1ea8 <Delay_Ms>
     91a:	4585                	li	a1,1
     91c:	03400513          	li	a0,52
     920:	12a010ef          	jal	ra,1a4a <RCC_APB2PeriphClockCmd>
     924:	4585                	li	a1,1
     926:	10000537          	lui	a0,0x10000
     92a:	166010ef          	jal	ra,1a90 <RCC_APB1PeriphClockCmd>
     92e:	57fd                	li	a5,-1
     930:	fef41223          	sh	a5,-28(s0)
     934:	fe042623          	sw	zero,-20(s0)
     938:	fe440793          	addi	a5,s0,-28
     93c:	85be                	mv	a1,a5
     93e:	400117b7          	lui	a5,0x40011
     942:	80078513          	addi	a0,a5,-2048 # 40010800 <__global_pointer$+0x2000ffa8>
     946:	7c2000ef          	jal	ra,1108 <GPIO_Init>
     94a:	fe440793          	addi	a5,s0,-28
     94e:	85be                	mv	a1,a5
     950:	400117b7          	lui	a5,0x40011
     954:	40078513          	addi	a0,a5,1024 # 40011400 <__global_pointer$+0x20010ba8>
     958:	7b0000ef          	jal	ra,1108 <GPIO_Init>
     95c:	fe440793          	addi	a5,s0,-28
     960:	85be                	mv	a1,a5
     962:	40011537          	lui	a0,0x40011
     966:	7a2000ef          	jal	ra,1108 <GPIO_Init>
     96a:	4791                	li	a5,4
     96c:	fef41223          	sh	a5,-28(s0)
     970:	47c1                	li	a5,16
     972:	fef42623          	sw	a5,-20(s0)
     976:	4785                	li	a5,1
     978:	fef42423          	sw	a5,-24(s0)
     97c:	fe440793          	addi	a5,s0,-28
     980:	85be                	mv	a1,a5
     982:	40011537          	lui	a0,0x40011
     986:	782000ef          	jal	ra,1108 <GPIO_Init>
     98a:	4789                	li	a5,2
     98c:	fef41223          	sh	a5,-28(s0)
     990:	47c1                	li	a5,16
     992:	fef42623          	sw	a5,-20(s0)
     996:	4785                	li	a5,1
     998:	fef42423          	sw	a5,-24(s0)
     99c:	fe440793          	addi	a5,s0,-28
     9a0:	85be                	mv	a1,a5
     9a2:	40011537          	lui	a0,0x40011
     9a6:	762000ef          	jal	ra,1108 <GPIO_Init>
     9aa:	47c1                	li	a5,16
     9ac:	fef41223          	sh	a5,-28(s0)
     9b0:	04800793          	li	a5,72
     9b4:	fef42623          	sw	a5,-20(s0)
     9b8:	4785                	li	a5,1
     9ba:	fef42423          	sw	a5,-24(s0)
     9be:	fe440793          	addi	a5,s0,-28
     9c2:	85be                	mv	a1,a5
     9c4:	40011537          	lui	a0,0x40011
     9c8:	740000ef          	jal	ra,1108 <GPIO_Init>
     9cc:	3dc9                	jal	89e <EXTI_INT_INIT()>
     9ce:	67f1                	lui	a5,0x1c
     9d0:	20078513          	addi	a0,a5,512 # 1c200 <_data_lma+0x19b00>
     9d4:	54e010ef          	jal	ra,1f22 <USART_Printf_Init>
     9d8:	200007b7          	lui	a5,0x20000
     9dc:	01c7a783          	lw	a5,28(a5) # 2000001c <_highcode_vma_end>
     9e0:	85be                	mv	a1,a5
     9e2:	6789                	lui	a5,0x2
     9e4:	65478513          	addi	a0,a5,1620 # 2654 <puts+0x6e>
     9e8:	3dd010ef          	jal	ra,25c4 <printf>
     9ec:	2e81                	jal	d3c <SystemCoreClockUpdate>
     9ee:	47b1                	li	a5,12
     9f0:	fef42823          	sw	a5,-16(s0)
     9f4:	ff042783          	lw	a5,-16(s0)
     9f8:	8bfd                	andi	a5,a5,31
     9fa:	4705                	li	a4,1
     9fc:	00f716b3          	sll	a3,a4,a5
     a00:	e000e737          	lui	a4,0xe000e
     a04:	ff042783          	lw	a5,-16(s0)
     a08:	8395                	srli	a5,a5,0x5
     a0a:	04078793          	addi	a5,a5,64
     a0e:	078a                	slli	a5,a5,0x2
     a10:	97ba                	add	a5,a5,a4
     a12:	c394                	sw	a3,0(a5)
     a14:	e000f7b7          	lui	a5,0xe000f
     a18:	43d8                	lw	a4,4(a5)
     a1a:	e000f7b7          	lui	a5,0xe000f
     a1e:	9b79                	andi	a4,a4,-2
     a20:	c3d8                	sw	a4,4(a5)
     a22:	e000f7b7          	lui	a5,0xe000f
     a26:	3e700713          	li	a4,999
     a2a:	cb98                	sw	a4,16(a5)
     a2c:	e000f7b7          	lui	a5,0xe000f
     a30:	0007a423          	sw	zero,8(a5) # e000f008 <__global_pointer$+0xc000e7b0>
     a34:	e000f7b7          	lui	a5,0xe000f
     a38:	472d                	li	a4,11
     a3a:	c398                	sw	a4,0(a5)
     a3c:	45f9                	li	a1,30
     a3e:	70800513          	li	a0,1800
     a42:	f70ff0ef          	jal	ra,1b2 <tone1>
     a46:	47e00513          	li	a0,1150
     a4a:	38a010ef          	jal	ra,1dd4 <delay>
     a4e:	06400593          	li	a1,100
     a52:	19000513          	li	a0,400
     a56:	f5cff0ef          	jal	ra,1b2 <tone1>
     a5a:	47e00513          	li	a0,1150
     a5e:	376010ef          	jal	ra,1dd4 <delay>
     a62:	02800593          	li	a1,40
     a66:	4b000513          	li	a0,1200
     a6a:	f48ff0ef          	jal	ra,1b2 <tone1>
     a6e:	47e00513          	li	a0,1150
     a72:	362010ef          	jal	ra,1dd4 <delay>
     a76:	02300593          	li	a1,35
     a7a:	4b000513          	li	a0,1200
     a7e:	f34ff0ef          	jal	ra,1b2 <tone1>
     a82:	02300593          	li	a1,35
     a86:	64000513          	li	a0,1600
     a8a:	f28ff0ef          	jal	ra,1b2 <tone1>
     a8e:	47e00513          	li	a0,1150
     a92:	342010ef          	jal	ra,1dd4 <delay>
     a96:	02800593          	li	a1,40
     a9a:	3e800513          	li	a0,1000
     a9e:	f14ff0ef          	jal	ra,1b2 <tone1>
     aa2:	02800593          	li	a1,40
     aa6:	57800513          	li	a0,1400
     aaa:	f08ff0ef          	jal	ra,1b2 <tone1>
     aae:	03c00593          	li	a1,60
     ab2:	70800513          	li	a0,1800
     ab6:	efcff0ef          	jal	ra,1b2 <tone1>
     aba:	47e00513          	li	a0,1150
     abe:	316010ef          	jal	ra,1dd4 <delay>
     ac2:	03c00593          	li	a1,60
     ac6:	51400513          	li	a0,1300
     aca:	ee8ff0ef          	jal	ra,1b2 <tone1>
     ace:	03c00593          	li	a1,60
     ad2:	6a400513          	li	a0,1700
     ad6:	edcff0ef          	jal	ra,1b2 <tone1>
     ada:	05000593          	li	a1,80
     ade:	7d000513          	li	a0,2000
     ae2:	ed0ff0ef          	jal	ra,1b2 <tone1>
     ae6:	2281                	jal	c26 <gotoDeepSleep>
     ae8:	200007b7          	lui	a5,0x20000
     aec:	06078513          	addi	a0,a5,96 # 20000060 <b>
     af0:	3b99                	jal	846 <uButton::tick()>
     af2:	200007b7          	lui	a5,0x20000
     af6:	06078513          	addi	a0,a5,96 # 20000060 <b>
     afa:	837ff0ef          	jal	ra,330 <uButtonVirt::press()>
     afe:	87aa                	mv	a5,a0
     b00:	cf81                	beqz	a5,b18 <main+0x226>
     b02:	6789                	lui	a5,0x2
     b04:	66478513          	addi	a0,a5,1636 # 2664 <puts+0x7e>
     b08:	2df010ef          	jal	ra,25e6 <puts>
     b0c:	4605                	li	a2,1
     b0e:	4591                	li	a1,4
     b10:	40011537          	lui	a0,0x40011
     b14:	76a000ef          	jal	ra,127e <GPIO_WriteBit>
     b18:	200007b7          	lui	a5,0x20000
     b1c:	06078513          	addi	a0,a5,96 # 20000060 <b>
     b20:	833ff0ef          	jal	ra,352 <uButtonVirt::click()>
     b24:	87aa                	mv	a5,a0
     b26:	c791                	beqz	a5,b32 <main+0x240>
     b28:	6789                	lui	a5,0x2
     b2a:	66c78513          	addi	a0,a5,1644 # 266c <puts+0x86>
     b2e:	2b9010ef          	jal	ra,25e6 <puts>
     b32:	200007b7          	lui	a5,0x20000
     b36:	06078513          	addi	a0,a5,96 # 20000060 <b>
     b3a:	83bff0ef          	jal	ra,374 <uButtonVirt::hold()>
     b3e:	87aa                	mv	a5,a0
     b40:	c791                	beqz	a5,b4c <main+0x25a>
     b42:	6789                	lui	a5,0x2
     b44:	67478513          	addi	a0,a5,1652 # 2674 <puts+0x8e>
     b48:	29f010ef          	jal	ra,25e6 <puts>
     b4c:	200007b7          	lui	a5,0x20000
     b50:	06078513          	addi	a0,a5,96 # 20000060 <b>
     b54:	843ff0ef          	jal	ra,396 <uButtonVirt::releaseHold()>
     b58:	87aa                	mv	a5,a0
     b5a:	c791                	beqz	a5,b66 <main+0x274>
     b5c:	6789                	lui	a5,0x2
     b5e:	67c78513          	addi	a0,a5,1660 # 267c <puts+0x96>
     b62:	285010ef          	jal	ra,25e6 <puts>
     b66:	200007b7          	lui	a5,0x20000
     b6a:	06078513          	addi	a0,a5,96 # 20000060 <b>
     b6e:	84bff0ef          	jal	ra,3b8 <uButtonVirt::step()>
     b72:	87aa                	mv	a5,a0
     b74:	c78d                	beqz	a5,b9e <main+0x2ac>
     b76:	6789                	lui	a5,0x2
     b78:	68878513          	addi	a0,a5,1672 # 2688 <puts+0xa2>
     b7c:	26b010ef          	jal	ra,25e6 <puts>
     b80:	4605                	li	a2,1
     b82:	4589                	li	a1,2
     b84:	40011537          	lui	a0,0x40011
     b88:	6f6000ef          	jal	ra,127e <GPIO_WriteBit>
     b8c:	4515                	li	a0,5
     b8e:	246010ef          	jal	ra,1dd4 <delay>
     b92:	4601                	li	a2,0
     b94:	4589                	li	a1,2
     b96:	40011537          	lui	a0,0x40011
     b9a:	6e4000ef          	jal	ra,127e <GPIO_WriteBit>
     b9e:	200007b7          	lui	a5,0x20000
     ba2:	06078513          	addi	a0,a5,96 # 20000060 <b>
     ba6:	835ff0ef          	jal	ra,3da <uButtonVirt::releaseStep()>
     baa:	87aa                	mv	a5,a0
     bac:	c791                	beqz	a5,bb8 <main+0x2c6>
     bae:	6789                	lui	a5,0x2
     bb0:	69078513          	addi	a0,a5,1680 # 2690 <puts+0xaa>
     bb4:	233010ef          	jal	ra,25e6 <puts>
     bb8:	200007b7          	lui	a5,0x20000
     bbc:	06078513          	addi	a0,a5,96 # 20000060 <b>
     bc0:	83dff0ef          	jal	ra,3fc <uButtonVirt::release()>
     bc4:	87aa                	mv	a5,a0
     bc6:	cb99                	beqz	a5,bdc <main+0x2ea>
     bc8:	6789                	lui	a5,0x2
     bca:	69c78513          	addi	a0,a5,1692 # 269c <puts+0xb6>
     bce:	219010ef          	jal	ra,25e6 <puts>
     bd2:	4601                	li	a2,0
     bd4:	4591                	li	a1,4
     bd6:	40011537          	lui	a0,0x40011
     bda:	2555                	jal	127e <GPIO_WriteBit>
     bdc:	200007b7          	lui	a5,0x20000
     be0:	06078513          	addi	a0,a5,96 # 20000060 <b>
     be4:	83bff0ef          	jal	ra,41e <uButtonVirt::hasClicks()>
     be8:	87aa                	mv	a5,a0
     bea:	cf91                	beqz	a5,c06 <main+0x314>
     bec:	200007b7          	lui	a5,0x20000
     bf0:	06078513          	addi	a0,a5,96 # 20000060 <b>
     bf4:	86fff0ef          	jal	ra,462 <uButtonVirt::getClicks()>
     bf8:	87aa                	mv	a5,a0
     bfa:	85be                	mv	a1,a5
     bfc:	6789                	lui	a5,0x2
     bfe:	6a478513          	addi	a0,a5,1700 # 26a4 <puts+0xbe>
     c02:	1c3010ef          	jal	ra,25c4 <printf>
     c06:	200007b7          	lui	a5,0x20000
     c0a:	06078513          	addi	a0,a5,96 # 20000060 <b>
     c0e:	833ff0ef          	jal	ra,440 <uButtonVirt::timeout()>
     c12:	87aa                	mv	a5,a0
     c14:	ec078ae3          	beqz	a5,ae8 <main+0x1f6>
     c18:	6789                	lui	a5,0x2
     c1a:	6b078513          	addi	a0,a5,1712 # 26b0 <puts+0xca>
     c1e:	1c9010ef          	jal	ra,25e6 <puts>
     c22:	2011                	jal	c26 <gotoDeepSleep>
     c24:	b5d1                	j	ae8 <main+0x1f6>

00000c26 <gotoDeepSleep>:
     c26:	1121                	addi	sp,sp,-24
     c28:	ca06                	sw	ra,20(sp)
     c2a:	c822                	sw	s0,16(sp)
     c2c:	0820                	addi	s0,sp,24
     c2e:	fe042423          	sw	zero,-24(s0)
     c32:	fe042623          	sw	zero,-20(s0)
     c36:	fe042823          	sw	zero,-16(s0)
     c3a:	4585                	li	a1,1
     c3c:	4505                	li	a0,1
     c3e:	60d000ef          	jal	ra,1a4a <RCC_APB2PeriphClockCmd>
     c42:	4585                	li	a1,1
     c44:	003007b7          	lui	a5,0x300
     c48:	40078513          	addi	a0,a5,1024 # 300400 <_data_lma+0x2fdd00>
     c4c:	25ad                	jal	12b6 <GPIO_PinRemapConfig>
     c4e:	57fd                	li	a5,-1
     c50:	fef41423          	sh	a5,-24(s0)
     c54:	fe042823          	sw	zero,-16(s0)
     c58:	4505                	li	a0,1
     c5a:	0c1000ef          	jal	ra,151a <PWR_EnterSTANDBYMode>
     c5e:	0001                	nop
     c60:	40d2                	lw	ra,20(sp)
     c62:	4442                	lw	s0,16(sp)
     c64:	0161                	addi	sp,sp,24
     c66:	8082                	ret

00000c68 <__static_initialization_and_destruction_0(int, int)>:
     c68:	1131                	addi	sp,sp,-20
     c6a:	c806                	sw	ra,16(sp)
     c6c:	c622                	sw	s0,12(sp)
     c6e:	0840                	addi	s0,sp,20
     c70:	fea42823          	sw	a0,-16(s0)
     c74:	feb42623          	sw	a1,-20(s0)
     c78:	ff042703          	lw	a4,-16(s0)
     c7c:	4785                	li	a5,1
     c7e:	00f71d63          	bne	a4,a5,c98 <__static_initialization_and_destruction_0(int, int)+0x30>
     c82:	fec42703          	lw	a4,-20(s0)
     c86:	67c1                	lui	a5,0x10
     c88:	17fd                	addi	a5,a5,-1
     c8a:	00f71763          	bne	a4,a5,c98 <__static_initialization_and_destruction_0(int, int)+0x30>
     c8e:	200007b7          	lui	a5,0x20000
     c92:	06078513          	addi	a0,a5,96 # 20000060 <b>
     c96:	3e49                	jal	828 <uButton::uButton()>
     c98:	0001                	nop
     c9a:	40c2                	lw	ra,16(sp)
     c9c:	4432                	lw	s0,12(sp)
     c9e:	0151                	addi	sp,sp,20
     ca0:	8082                	ret

00000ca2 <_GLOBAL__sub_I_b>:
     ca2:	1151                	addi	sp,sp,-12
     ca4:	c406                	sw	ra,8(sp)
     ca6:	c222                	sw	s0,4(sp)
     ca8:	0060                	addi	s0,sp,12
     caa:	67c1                	lui	a5,0x10
     cac:	fff78593          	addi	a1,a5,-1 # ffff <_data_lma+0xd8ff>
     cb0:	4505                	li	a0,1
     cb2:	3f5d                	jal	c68 <__static_initialization_and_destruction_0(int, int)>
     cb4:	40a2                	lw	ra,8(sp)
     cb6:	4412                	lw	s0,4(sp)
     cb8:	0131                	addi	sp,sp,12
     cba:	8082                	ret

00000cbc <SystemInit>:
     cbc:	1151                	addi	sp,sp,-12
     cbe:	c406                	sw	ra,8(sp)
     cc0:	c222                	sw	s0,4(sp)
     cc2:	0060                	addi	s0,sp,12
     cc4:	400217b7          	lui	a5,0x40021
     cc8:	4398                	lw	a4,0(a5)
     cca:	400217b7          	lui	a5,0x40021
     cce:	00176713          	ori	a4,a4,1
     cd2:	c398                	sw	a4,0(a5)
     cd4:	400217b7          	lui	a5,0x40021
     cd8:	43d4                	lw	a3,4(a5)
     cda:	400217b7          	lui	a5,0x40021
     cde:	f8ff0737          	lui	a4,0xf8ff0
     ce2:	8f75                	and	a4,a4,a3
     ce4:	c3d8                	sw	a4,4(a5)
     ce6:	400217b7          	lui	a5,0x40021
     cea:	4394                	lw	a3,0(a5)
     cec:	400217b7          	lui	a5,0x40021
     cf0:	fef70737          	lui	a4,0xfef70
     cf4:	177d                	addi	a4,a4,-1
     cf6:	8f75                	and	a4,a4,a3
     cf8:	c398                	sw	a4,0(a5)
     cfa:	400217b7          	lui	a5,0x40021
     cfe:	4394                	lw	a3,0(a5)
     d00:	400217b7          	lui	a5,0x40021
     d04:	fffc0737          	lui	a4,0xfffc0
     d08:	177d                	addi	a4,a4,-1
     d0a:	8f75                	and	a4,a4,a3
     d0c:	c398                	sw	a4,0(a5)
     d0e:	400217b7          	lui	a5,0x40021
     d12:	43d4                	lw	a3,4(a5)
     d14:	400217b7          	lui	a5,0x40021
     d18:	7741                	lui	a4,0xffff0
     d1a:	177d                	addi	a4,a4,-1
     d1c:	8f75                	and	a4,a4,a3
     d1e:	c3d8                	sw	a4,4(a5)
     d20:	400217b7          	lui	a5,0x40021
     d24:	009f0737          	lui	a4,0x9f0
     d28:	c798                	sw	a4,8(a5)
     d2a:	4541                	li	a0,16
     d2c:	31d000ef          	jal	ra,1848 <RCC_AdjustHSICalibrationValue>
     d30:	2a39                	jal	e4e <SetSysClock>
     d32:	0001                	nop
     d34:	40a2                	lw	ra,8(sp)
     d36:	4412                	lw	s0,4(sp)
     d38:	0131                	addi	sp,sp,12
     d3a:	8082                	ret

00000d3c <SystemCoreClockUpdate>:
     d3c:	1131                	addi	sp,sp,-20
     d3e:	c806                	sw	ra,16(sp)
     d40:	c622                	sw	s0,12(sp)
     d42:	0840                	addi	s0,sp,20
     d44:	fe042823          	sw	zero,-16(s0)
     d48:	fe042623          	sw	zero,-20(s0)
     d4c:	400217b7          	lui	a5,0x40021
     d50:	43dc                	lw	a5,4(a5)
     d52:	8bb1                	andi	a5,a5,12
     d54:	fef42823          	sw	a5,-16(s0)
     d58:	ff042703          	lw	a4,-16(s0)
     d5c:	4791                	li	a5,4
     d5e:	02f70363          	beq	a4,a5,d84 <SystemCoreClockUpdate+0x48>
     d62:	ff042703          	lw	a4,-16(s0)
     d66:	47a1                	li	a5,8
     d68:	02f70763          	beq	a4,a5,d96 <SystemCoreClockUpdate+0x5a>
     d6c:	ff042783          	lw	a5,-16(s0)
     d70:	efb9                	bnez	a5,dce <SystemCoreClockUpdate+0x92>
     d72:	200007b7          	lui	a5,0x20000
     d76:	016e3737          	lui	a4,0x16e3
     d7a:	60070713          	addi	a4,a4,1536 # 16e3600 <_data_lma+0x16e0f00>
     d7e:	00e7ae23          	sw	a4,28(a5) # 2000001c <_highcode_vma_end>
     d82:	a8b9                	j	de0 <SystemCoreClockUpdate+0xa4>
     d84:	200007b7          	lui	a5,0x20000
     d88:	016e3737          	lui	a4,0x16e3
     d8c:	60070713          	addi	a4,a4,1536 # 16e3600 <_data_lma+0x16e0f00>
     d90:	00e7ae23          	sw	a4,28(a5) # 2000001c <_highcode_vma_end>
     d94:	a0b1                	j	de0 <SystemCoreClockUpdate+0xa4>
     d96:	400217b7          	lui	a5,0x40021
     d9a:	43d8                	lw	a4,4(a5)
     d9c:	67c1                	lui	a5,0x10
     d9e:	8ff9                	and	a5,a5,a4
     da0:	fef42623          	sw	a5,-20(s0)
     da4:	fec42783          	lw	a5,-20(s0)
     da8:	eb91                	bnez	a5,dbc <SystemCoreClockUpdate+0x80>
     daa:	200007b7          	lui	a5,0x20000
     dae:	02dc7737          	lui	a4,0x2dc7
     db2:	c0070713          	addi	a4,a4,-1024 # 2dc6c00 <_data_lma+0x2dc4500>
     db6:	00e7ae23          	sw	a4,28(a5) # 2000001c <_highcode_vma_end>
     dba:	a01d                	j	de0 <SystemCoreClockUpdate+0xa4>
     dbc:	200007b7          	lui	a5,0x20000
     dc0:	02dc7737          	lui	a4,0x2dc7
     dc4:	c0070713          	addi	a4,a4,-1024 # 2dc6c00 <_data_lma+0x2dc4500>
     dc8:	00e7ae23          	sw	a4,28(a5) # 2000001c <_highcode_vma_end>
     dcc:	a811                	j	de0 <SystemCoreClockUpdate+0xa4>
     dce:	200007b7          	lui	a5,0x20000
     dd2:	016e3737          	lui	a4,0x16e3
     dd6:	60070713          	addi	a4,a4,1536 # 16e3600 <_data_lma+0x16e0f00>
     dda:	00e7ae23          	sw	a4,28(a5) # 2000001c <_highcode_vma_end>
     dde:	0001                	nop
     de0:	400217b7          	lui	a5,0x40021
     de4:	43dc                	lw	a5,4(a5)
     de6:	8391                	srli	a5,a5,0x4
     de8:	00f7f713          	andi	a4,a5,15
     dec:	200007b7          	lui	a5,0x20000
     df0:	02078793          	addi	a5,a5,32 # 20000020 <AHBPrescTable>
     df4:	97ba                	add	a5,a5,a4
     df6:	239c                	lbu	a5,0(a5)
     df8:	0ff7f793          	andi	a5,a5,255
     dfc:	fef42823          	sw	a5,-16(s0)
     e00:	400217b7          	lui	a5,0x40021
     e04:	43dc                	lw	a5,4(a5)
     e06:	0807f793          	andi	a5,a5,128
     e0a:	e38d                	bnez	a5,e2c <SystemCoreClockUpdate+0xf0>
     e0c:	200007b7          	lui	a5,0x20000
     e10:	01c7a783          	lw	a5,28(a5) # 2000001c <_highcode_vma_end>
     e14:	ff042583          	lw	a1,-16(s0)
     e18:	853e                	mv	a0,a5
     e1a:	ac2ff0ef          	jal	ra,dc <__udivsi3>
     e1e:	87aa                	mv	a5,a0
     e20:	873e                	mv	a4,a5
     e22:	200007b7          	lui	a5,0x20000
     e26:	00e7ae23          	sw	a4,28(a5) # 2000001c <_highcode_vma_end>
     e2a:	a829                	j	e44 <SystemCoreClockUpdate+0x108>
     e2c:	200007b7          	lui	a5,0x20000
     e30:	01c7a703          	lw	a4,28(a5) # 2000001c <_highcode_vma_end>
     e34:	ff042783          	lw	a5,-16(s0)
     e38:	00f75733          	srl	a4,a4,a5
     e3c:	200007b7          	lui	a5,0x20000
     e40:	00e7ae23          	sw	a4,28(a5) # 2000001c <_highcode_vma_end>
     e44:	0001                	nop
     e46:	40c2                	lw	ra,16(sp)
     e48:	4432                	lw	s0,12(sp)
     e4a:	0151                	addi	sp,sp,20
     e4c:	8082                	ret

00000e4e <SetSysClock>:
     e4e:	1151                	addi	sp,sp,-12
     e50:	c406                	sw	ra,8(sp)
     e52:	c222                	sw	s0,4(sp)
     e54:	0060                	addi	s0,sp,12
     e56:	400217b7          	lui	a5,0x40021
     e5a:	4f98                	lw	a4,24(a5)
     e5c:	400217b7          	lui	a5,0x40021
     e60:	02076713          	ori	a4,a4,32
     e64:	cf98                	sw	a4,24(a5)
     e66:	400117b7          	lui	a5,0x40011
     e6a:	40078793          	addi	a5,a5,1024 # 40011400 <__global_pointer$+0x20010ba8>
     e6e:	4398                	lw	a4,0(a5)
     e70:	400117b7          	lui	a5,0x40011
     e74:	40078793          	addi	a5,a5,1024 # 40011400 <__global_pointer$+0x20010ba8>
     e78:	f0f77713          	andi	a4,a4,-241
     e7c:	c398                	sw	a4,0(a5)
     e7e:	400117b7          	lui	a5,0x40011
     e82:	40078793          	addi	a5,a5,1024 # 40011400 <__global_pointer$+0x20010ba8>
     e86:	4398                	lw	a4,0(a5)
     e88:	400117b7          	lui	a5,0x40011
     e8c:	40078793          	addi	a5,a5,1024 # 40011400 <__global_pointer$+0x20010ba8>
     e90:	08076713          	ori	a4,a4,128
     e94:	c398                	sw	a4,0(a5)
     e96:	400117b7          	lui	a5,0x40011
     e9a:	40078793          	addi	a5,a5,1024 # 40011400 <__global_pointer$+0x20010ba8>
     e9e:	4709                	li	a4,2
     ea0:	cb98                	sw	a4,16(a5)
     ea2:	2031                	jal	eae <SetSysClockTo_8MHz_HSI>
     ea4:	0001                	nop
     ea6:	40a2                	lw	ra,8(sp)
     ea8:	4412                	lw	s0,4(sp)
     eaa:	0131                	addi	sp,sp,12
     eac:	8082                	ret

00000eae <SetSysClockTo_8MHz_HSI>:
     eae:	1171                	addi	sp,sp,-4
     eb0:	c022                	sw	s0,0(sp)
     eb2:	0040                	addi	s0,sp,4
     eb4:	400227b7          	lui	a5,0x40022
     eb8:	4398                	lw	a4,0(a5)
     eba:	400227b7          	lui	a5,0x40022
     ebe:	9b71                	andi	a4,a4,-4
     ec0:	c398                	sw	a4,0(a5)
     ec2:	40022737          	lui	a4,0x40022
     ec6:	400227b7          	lui	a5,0x40022
     eca:	4318                	lw	a4,0(a4)
     ecc:	c398                	sw	a4,0(a5)
     ece:	400217b7          	lui	a5,0x40021
     ed2:	43d8                	lw	a4,4(a5)
     ed4:	400217b7          	lui	a5,0x40021
     ed8:	02076713          	ori	a4,a4,32
     edc:	c3d8                	sw	a4,4(a5)
     ede:	0001                	nop
     ee0:	4402                	lw	s0,0(sp)
     ee2:	0111                	addi	sp,sp,4
     ee4:	8082                	ret

00000ee6 <ADC1_IRQHandler>:
     ee6:	a001                	j	ee6 <ADC1_IRQHandler>

00000ee8 <handle_reset>:
     ee8:	20000197          	auipc	gp,0x20000
     eec:	97018193          	addi	gp,gp,-1680 # 20000858 <__global_pointer$>
     ef0:	fa818113          	addi	sp,gp,-88 # 20000800 <_eusrstack>
     ef4:	0a000513          	li	a0,160
     ef8:	1ffff597          	auipc	a1,0x1ffff
     efc:	10858593          	addi	a1,a1,264 # 20000000 <WFE>
     f00:	1ffff617          	auipc	a2,0x1ffff
     f04:	11c60613          	addi	a2,a2,284 # 2000001c <_highcode_vma_end>
     f08:	00c5fa63          	bgeu	a1,a2,f1c <handle_reset+0x34>
     f0c:	00052283          	lw	t0,0(a0) # 40011000 <__global_pointer$+0x200107a8>
     f10:	0055a023          	sw	t0,0(a1)
     f14:	0511                	addi	a0,a0,4
     f16:	0591                	addi	a1,a1,4
     f18:	fec5eae3          	bltu	a1,a2,f0c <handle_reset+0x24>
     f1c:	00001517          	auipc	a0,0x1
     f20:	7e450513          	addi	a0,a0,2020 # 2700 <_data_lma>
     f24:	1ffff597          	auipc	a1,0x1ffff
     f28:	0f858593          	addi	a1,a1,248 # 2000001c <_highcode_vma_end>
     f2c:	1ffff617          	auipc	a2,0x1ffff
     f30:	12c60613          	addi	a2,a2,300 # 20000058 <_edata>
     f34:	00c5fa63          	bgeu	a1,a2,f48 <handle_reset+0x60>
     f38:	00052283          	lw	t0,0(a0)
     f3c:	0055a023          	sw	t0,0(a1)
     f40:	0511                	addi	a0,a0,4
     f42:	0591                	addi	a1,a1,4
     f44:	fec5eae3          	bltu	a1,a2,f38 <handle_reset+0x50>
     f48:	1ffff517          	auipc	a0,0x1ffff
     f4c:	11050513          	addi	a0,a0,272 # 20000058 <_edata>
     f50:	82818593          	addi	a1,gp,-2008 # 20000080 <_ebss>
     f54:	00b57763          	bgeu	a0,a1,f62 <handle_reset+0x7a>
     f58:	00052023          	sw	zero,0(a0)
     f5c:	0511                	addi	a0,a0,4
     f5e:	feb56de3          	bltu	a0,a1,f58 <handle_reset+0x70>
     f62:	000022b7          	lui	t0,0x2
     f66:	88028293          	addi	t0,t0,-1920 # 1880 <RCC_AdjustHSICalibrationValue+0x38>
     f6a:	30029073          	csrw	mstatus,t0
     f6e:	428d                	li	t0,3
     f70:	80429073          	csrw	0x804,t0
     f74:	fffff297          	auipc	t0,0xfffff
     f78:	08c28293          	addi	t0,t0,140 # 0 <_sinit>
     f7c:	0032e293          	ori	t0,t0,3
     f80:	30529073          	csrw	mtvec,t0
     f84:	d39ff0ef          	jal	ra,cbc <SystemInit>
     f88:	00000297          	auipc	t0,0x0
     f8c:	96a28293          	addi	t0,t0,-1686 # 8f2 <main>
     f90:	34129073          	csrw	mepc,t0
     f94:	30200073          	mret

00000f98 <EXTI_Init>:
     f98:	1151                	addi	sp,sp,-12
     f9a:	c422                	sw	s0,8(sp)
     f9c:	0060                	addi	s0,sp,12
     f9e:	fea42a23          	sw	a0,-12(s0)
     fa2:	fe042c23          	sw	zero,-8(s0)
     fa6:	400107b7          	lui	a5,0x40010
     faa:	40078793          	addi	a5,a5,1024 # 40010400 <__global_pointer$+0x2000fba8>
     fae:	fef42c23          	sw	a5,-8(s0)
     fb2:	ff442783          	lw	a5,-12(s0)
     fb6:	47dc                	lw	a5,12(a5)
     fb8:	12078063          	beqz	a5,10d8 <EXTI_Init+0x140>
     fbc:	400107b7          	lui	a5,0x40010
     fc0:	40078793          	addi	a5,a5,1024 # 40010400 <__global_pointer$+0x2000fba8>
     fc4:	4394                	lw	a3,0(a5)
     fc6:	ff442783          	lw	a5,-12(s0)
     fca:	439c                	lw	a5,0(a5)
     fcc:	fff7c713          	not	a4,a5
     fd0:	400107b7          	lui	a5,0x40010
     fd4:	40078793          	addi	a5,a5,1024 # 40010400 <__global_pointer$+0x2000fba8>
     fd8:	8f75                	and	a4,a4,a3
     fda:	c398                	sw	a4,0(a5)
     fdc:	400107b7          	lui	a5,0x40010
     fe0:	40078793          	addi	a5,a5,1024 # 40010400 <__global_pointer$+0x2000fba8>
     fe4:	43d4                	lw	a3,4(a5)
     fe6:	ff442783          	lw	a5,-12(s0)
     fea:	439c                	lw	a5,0(a5)
     fec:	fff7c713          	not	a4,a5
     ff0:	400107b7          	lui	a5,0x40010
     ff4:	40078793          	addi	a5,a5,1024 # 40010400 <__global_pointer$+0x2000fba8>
     ff8:	8f75                	and	a4,a4,a3
     ffa:	c3d8                	sw	a4,4(a5)
     ffc:	ff442783          	lw	a5,-12(s0)
    1000:	43dc                	lw	a5,4(a5)
    1002:	ff842703          	lw	a4,-8(s0)
    1006:	97ba                	add	a5,a5,a4
    1008:	fef42c23          	sw	a5,-8(s0)
    100c:	ff842783          	lw	a5,-8(s0)
    1010:	4394                	lw	a3,0(a5)
    1012:	ff442783          	lw	a5,-12(s0)
    1016:	4398                	lw	a4,0(a5)
    1018:	ff842783          	lw	a5,-8(s0)
    101c:	8f55                	or	a4,a4,a3
    101e:	c398                	sw	a4,0(a5)
    1020:	400107b7          	lui	a5,0x40010
    1024:	40078793          	addi	a5,a5,1024 # 40010400 <__global_pointer$+0x2000fba8>
    1028:	4794                	lw	a3,8(a5)
    102a:	ff442783          	lw	a5,-12(s0)
    102e:	439c                	lw	a5,0(a5)
    1030:	fff7c713          	not	a4,a5
    1034:	400107b7          	lui	a5,0x40010
    1038:	40078793          	addi	a5,a5,1024 # 40010400 <__global_pointer$+0x2000fba8>
    103c:	8f75                	and	a4,a4,a3
    103e:	c798                	sw	a4,8(a5)
    1040:	400107b7          	lui	a5,0x40010
    1044:	40078793          	addi	a5,a5,1024 # 40010400 <__global_pointer$+0x2000fba8>
    1048:	47d4                	lw	a3,12(a5)
    104a:	ff442783          	lw	a5,-12(s0)
    104e:	439c                	lw	a5,0(a5)
    1050:	fff7c713          	not	a4,a5
    1054:	400107b7          	lui	a5,0x40010
    1058:	40078793          	addi	a5,a5,1024 # 40010400 <__global_pointer$+0x2000fba8>
    105c:	8f75                	and	a4,a4,a3
    105e:	c7d8                	sw	a4,12(a5)
    1060:	ff442783          	lw	a5,-12(s0)
    1064:	4798                	lw	a4,8(a5)
    1066:	47c1                	li	a5,16
    1068:	02f71f63          	bne	a4,a5,10a6 <EXTI_Init+0x10e>
    106c:	400107b7          	lui	a5,0x40010
    1070:	40078793          	addi	a5,a5,1024 # 40010400 <__global_pointer$+0x2000fba8>
    1074:	4794                	lw	a3,8(a5)
    1076:	ff442783          	lw	a5,-12(s0)
    107a:	4398                	lw	a4,0(a5)
    107c:	400107b7          	lui	a5,0x40010
    1080:	40078793          	addi	a5,a5,1024 # 40010400 <__global_pointer$+0x2000fba8>
    1084:	8f55                	or	a4,a4,a3
    1086:	c798                	sw	a4,8(a5)
    1088:	400107b7          	lui	a5,0x40010
    108c:	40078793          	addi	a5,a5,1024 # 40010400 <__global_pointer$+0x2000fba8>
    1090:	47d4                	lw	a3,12(a5)
    1092:	ff442783          	lw	a5,-12(s0)
    1096:	4398                	lw	a4,0(a5)
    1098:	400107b7          	lui	a5,0x40010
    109c:	40078793          	addi	a5,a5,1024 # 40010400 <__global_pointer$+0x2000fba8>
    10a0:	8f55                	or	a4,a4,a3
    10a2:	c7d8                	sw	a4,12(a5)
    10a4:	a8b1                	j	1100 <EXTI_Init+0x168>
    10a6:	400107b7          	lui	a5,0x40010
    10aa:	40078793          	addi	a5,a5,1024 # 40010400 <__global_pointer$+0x2000fba8>
    10ae:	fef42c23          	sw	a5,-8(s0)
    10b2:	ff442783          	lw	a5,-12(s0)
    10b6:	479c                	lw	a5,8(a5)
    10b8:	ff842703          	lw	a4,-8(s0)
    10bc:	97ba                	add	a5,a5,a4
    10be:	fef42c23          	sw	a5,-8(s0)
    10c2:	ff842783          	lw	a5,-8(s0)
    10c6:	4394                	lw	a3,0(a5)
    10c8:	ff442783          	lw	a5,-12(s0)
    10cc:	4398                	lw	a4,0(a5)
    10ce:	ff842783          	lw	a5,-8(s0)
    10d2:	8f55                	or	a4,a4,a3
    10d4:	c398                	sw	a4,0(a5)
    10d6:	a02d                	j	1100 <EXTI_Init+0x168>
    10d8:	ff442783          	lw	a5,-12(s0)
    10dc:	43dc                	lw	a5,4(a5)
    10de:	ff842703          	lw	a4,-8(s0)
    10e2:	97ba                	add	a5,a5,a4
    10e4:	fef42c23          	sw	a5,-8(s0)
    10e8:	ff842783          	lw	a5,-8(s0)
    10ec:	4394                	lw	a3,0(a5)
    10ee:	ff442783          	lw	a5,-12(s0)
    10f2:	439c                	lw	a5,0(a5)
    10f4:	fff7c713          	not	a4,a5
    10f8:	ff842783          	lw	a5,-8(s0)
    10fc:	8f75                	and	a4,a4,a3
    10fe:	c398                	sw	a4,0(a5)
    1100:	0001                	nop
    1102:	4422                	lw	s0,8(sp)
    1104:	0131                	addi	sp,sp,12
    1106:	8082                	ret

00001108 <GPIO_Init>:
    1108:	fdc10113          	addi	sp,sp,-36
    110c:	d022                	sw	s0,32(sp)
    110e:	1040                	addi	s0,sp,36
    1110:	fea42023          	sw	a0,-32(s0)
    1114:	fcb42e23          	sw	a1,-36(s0)
    1118:	fe042c23          	sw	zero,-8(s0)
    111c:	fe042623          	sw	zero,-20(s0)
    1120:	fe042a23          	sw	zero,-12(s0)
    1124:	fe042423          	sw	zero,-24(s0)
    1128:	fe042823          	sw	zero,-16(s0)
    112c:	fe042223          	sw	zero,-28(s0)
    1130:	fdc42783          	lw	a5,-36(s0)
    1134:	479c                	lw	a5,8(a5)
    1136:	8bbd                	andi	a5,a5,15
    1138:	fef42c23          	sw	a5,-8(s0)
    113c:	fdc42783          	lw	a5,-36(s0)
    1140:	479c                	lw	a5,8(a5)
    1142:	8bc1                	andi	a5,a5,16
    1144:	cb89                	beqz	a5,1156 <GPIO_Init+0x4e>
    1146:	fdc42783          	lw	a5,-36(s0)
    114a:	43dc                	lw	a5,4(a5)
    114c:	ff842703          	lw	a4,-8(s0)
    1150:	8fd9                	or	a5,a5,a4
    1152:	fef42c23          	sw	a5,-8(s0)
    1156:	fdc42783          	lw	a5,-36(s0)
    115a:	239e                	lhu	a5,0(a5)
    115c:	0ff7f793          	andi	a5,a5,255
    1160:	cfe9                	beqz	a5,123a <GPIO_Init+0x132>
    1162:	fe042783          	lw	a5,-32(s0)
    1166:	439c                	lw	a5,0(a5)
    1168:	fef42823          	sw	a5,-16(s0)
    116c:	fe042a23          	sw	zero,-12(s0)
    1170:	a85d                	j	1226 <GPIO_Init+0x11e>
    1172:	ff442783          	lw	a5,-12(s0)
    1176:	4705                	li	a4,1
    1178:	00f717b3          	sll	a5,a4,a5
    117c:	fef42423          	sw	a5,-24(s0)
    1180:	fdc42783          	lw	a5,-36(s0)
    1184:	239e                	lhu	a5,0(a5)
    1186:	873e                	mv	a4,a5
    1188:	fe842783          	lw	a5,-24(s0)
    118c:	8ff9                	and	a5,a5,a4
    118e:	fef42623          	sw	a5,-20(s0)
    1192:	fec42703          	lw	a4,-20(s0)
    1196:	fe842783          	lw	a5,-24(s0)
    119a:	08f71163          	bne	a4,a5,121c <GPIO_Init+0x114>
    119e:	ff442783          	lw	a5,-12(s0)
    11a2:	078a                	slli	a5,a5,0x2
    11a4:	fef42423          	sw	a5,-24(s0)
    11a8:	fe842783          	lw	a5,-24(s0)
    11ac:	473d                	li	a4,15
    11ae:	00f717b3          	sll	a5,a4,a5
    11b2:	fef42223          	sw	a5,-28(s0)
    11b6:	fe442783          	lw	a5,-28(s0)
    11ba:	fff7c793          	not	a5,a5
    11be:	ff042703          	lw	a4,-16(s0)
    11c2:	8ff9                	and	a5,a5,a4
    11c4:	fef42823          	sw	a5,-16(s0)
    11c8:	fe842783          	lw	a5,-24(s0)
    11cc:	ff842703          	lw	a4,-8(s0)
    11d0:	00f717b3          	sll	a5,a4,a5
    11d4:	ff042703          	lw	a4,-16(s0)
    11d8:	8fd9                	or	a5,a5,a4
    11da:	fef42823          	sw	a5,-16(s0)
    11de:	fdc42783          	lw	a5,-36(s0)
    11e2:	4798                	lw	a4,8(a5)
    11e4:	02800793          	li	a5,40
    11e8:	00f71b63          	bne	a4,a5,11fe <GPIO_Init+0xf6>
    11ec:	ff442783          	lw	a5,-12(s0)
    11f0:	4705                	li	a4,1
    11f2:	00f71733          	sll	a4,a4,a5
    11f6:	fe042783          	lw	a5,-32(s0)
    11fa:	cbd8                	sw	a4,20(a5)
    11fc:	a005                	j	121c <GPIO_Init+0x114>
    11fe:	fdc42783          	lw	a5,-36(s0)
    1202:	4798                	lw	a4,8(a5)
    1204:	04800793          	li	a5,72
    1208:	00f71a63          	bne	a4,a5,121c <GPIO_Init+0x114>
    120c:	ff442783          	lw	a5,-12(s0)
    1210:	4705                	li	a4,1
    1212:	00f71733          	sll	a4,a4,a5
    1216:	fe042783          	lw	a5,-32(s0)
    121a:	cb98                	sw	a4,16(a5)
    121c:	ff442783          	lw	a5,-12(s0)
    1220:	0785                	addi	a5,a5,1
    1222:	fef42a23          	sw	a5,-12(s0)
    1226:	ff442703          	lw	a4,-12(s0)
    122a:	479d                	li	a5,7
    122c:	f4e7f3e3          	bgeu	a5,a4,1172 <GPIO_Init+0x6a>
    1230:	fe042783          	lw	a5,-32(s0)
    1234:	ff042703          	lw	a4,-16(s0)
    1238:	c398                	sw	a4,0(a5)
    123a:	0001                	nop
    123c:	5402                	lw	s0,32(sp)
    123e:	02410113          	addi	sp,sp,36
    1242:	8082                	ret

00001244 <GPIO_ReadInputDataBit>:
    1244:	1141                	addi	sp,sp,-16
    1246:	c622                	sw	s0,12(sp)
    1248:	0800                	addi	s0,sp,16
    124a:	fea42a23          	sw	a0,-12(s0)
    124e:	87ae                	mv	a5,a1
    1250:	fef41923          	sh	a5,-14(s0)
    1254:	fe040da3          	sb	zero,-5(s0)
    1258:	ff442783          	lw	a5,-12(s0)
    125c:	4798                	lw	a4,8(a5)
    125e:	ff245783          	lhu	a5,-14(s0)
    1262:	8ff9                	and	a5,a5,a4
    1264:	c789                	beqz	a5,126e <GPIO_ReadInputDataBit+0x2a>
    1266:	4785                	li	a5,1
    1268:	fef40da3          	sb	a5,-5(s0)
    126c:	a019                	j	1272 <GPIO_ReadInputDataBit+0x2e>
    126e:	fe040da3          	sb	zero,-5(s0)
    1272:	ffb44783          	lbu	a5,-5(s0)
    1276:	853e                	mv	a0,a5
    1278:	4432                	lw	s0,12(sp)
    127a:	0141                	addi	sp,sp,16
    127c:	8082                	ret

0000127e <GPIO_WriteBit>:
    127e:	1141                	addi	sp,sp,-16
    1280:	c622                	sw	s0,12(sp)
    1282:	0800                	addi	s0,sp,16
    1284:	fea42c23          	sw	a0,-8(s0)
    1288:	87ae                	mv	a5,a1
    128a:	fec42823          	sw	a2,-16(s0)
    128e:	fef41b23          	sh	a5,-10(s0)
    1292:	ff042783          	lw	a5,-16(s0)
    1296:	c799                	beqz	a5,12a4 <GPIO_WriteBit+0x26>
    1298:	ff645703          	lhu	a4,-10(s0)
    129c:	ff842783          	lw	a5,-8(s0)
    12a0:	cb98                	sw	a4,16(a5)
    12a2:	a031                	j	12ae <GPIO_WriteBit+0x30>
    12a4:	ff645703          	lhu	a4,-10(s0)
    12a8:	ff842783          	lw	a5,-8(s0)
    12ac:	cbd8                	sw	a4,20(a5)
    12ae:	0001                	nop
    12b0:	4432                	lw	s0,12(sp)
    12b2:	0141                	addi	sp,sp,16
    12b4:	8082                	ret

000012b6 <GPIO_PinRemapConfig>:
    12b6:	1111                	addi	sp,sp,-28
    12b8:	cc22                	sw	s0,24(sp)
    12ba:	0860                	addi	s0,sp,28
    12bc:	fea42423          	sw	a0,-24(s0)
    12c0:	feb42223          	sw	a1,-28(s0)
    12c4:	fe042a23          	sw	zero,-12(s0)
    12c8:	fe042823          	sw	zero,-16(s0)
    12cc:	fe042c23          	sw	zero,-8(s0)
    12d0:	fe042623          	sw	zero,-20(s0)
    12d4:	400107b7          	lui	a5,0x40010
    12d8:	43dc                	lw	a5,4(a5)
    12da:	fef42c23          	sw	a5,-8(s0)
    12de:	fe842783          	lw	a5,-24(s0)
    12e2:	83c1                	srli	a5,a5,0x10
    12e4:	8bbd                	andi	a5,a5,15
    12e6:	fef42623          	sw	a5,-20(s0)
    12ea:	fe842703          	lw	a4,-24(s0)
    12ee:	67c1                	lui	a5,0x10
    12f0:	17fd                	addi	a5,a5,-1
    12f2:	8ff9                	and	a5,a5,a4
    12f4:	fef42a23          	sw	a5,-12(s0)
    12f8:	fe842703          	lw	a4,-24(s0)
    12fc:	100007b7          	lui	a5,0x10000
    1300:	8ff9                	and	a5,a5,a4
    1302:	c3a1                	beqz	a5,1342 <GPIO_PinRemapConfig+0x8c>
    1304:	ff842703          	lw	a4,-8(s0)
    1308:	ffc007b7          	lui	a5,0xffc00
    130c:	17f5                	addi	a5,a5,-3
    130e:	8ff9                	and	a5,a5,a4
    1310:	fef42c23          	sw	a5,-8(s0)
    1314:	ff842703          	lw	a4,-8(s0)
    1318:	070007b7          	lui	a5,0x7000
    131c:	8fd9                	or	a5,a5,a4
    131e:	fef42c23          	sw	a5,-8(s0)
    1322:	fe442783          	lw	a5,-28(s0)
    1326:	16078263          	beqz	a5,148a <GPIO_PinRemapConfig+0x1d4>
    132a:	fe842703          	lw	a4,-24(s0)
    132e:	f00007b7          	lui	a5,0xf0000
    1332:	17fd                	addi	a5,a5,-1
    1334:	8ff9                	and	a5,a5,a4
    1336:	ff842703          	lw	a4,-8(s0)
    133a:	8fd9                	or	a5,a5,a4
    133c:	fef42c23          	sw	a5,-8(s0)
    1340:	a2a9                	j	148a <GPIO_PinRemapConfig+0x1d4>
    1342:	fe842783          	lw	a5,-24(s0)
    1346:	0407d263          	bgez	a5,138a <GPIO_PinRemapConfig+0xd4>
    134a:	ff842703          	lw	a4,-8(s0)
    134e:	ffe007b7          	lui	a5,0xffe00
    1352:	17ed                	addi	a5,a5,-5
    1354:	8ff9                	and	a5,a5,a4
    1356:	fef42c23          	sw	a5,-8(s0)
    135a:	ff842703          	lw	a4,-8(s0)
    135e:	070007b7          	lui	a5,0x7000
    1362:	8fd9                	or	a5,a5,a4
    1364:	fef42c23          	sw	a5,-8(s0)
    1368:	fe442783          	lw	a5,-28(s0)
    136c:	10078f63          	beqz	a5,148a <GPIO_PinRemapConfig+0x1d4>
    1370:	fe842703          	lw	a4,-24(s0)
    1374:	800007b7          	lui	a5,0x80000
    1378:	fff7c793          	not	a5,a5
    137c:	8ff9                	and	a5,a5,a4
    137e:	ff842703          	lw	a4,-8(s0)
    1382:	8fd9                	or	a5,a5,a4
    1384:	fef42c23          	sw	a5,-8(s0)
    1388:	a209                	j	148a <GPIO_PinRemapConfig+0x1d4>
    138a:	fe842703          	lw	a4,-24(s0)
    138e:	003007b7          	lui	a5,0x300
    1392:	8f7d                	and	a4,a4,a5
    1394:	003007b7          	lui	a5,0x300
    1398:	04f71563          	bne	a4,a5,13e2 <GPIO_PinRemapConfig+0x12c>
    139c:	ff842703          	lw	a4,-8(s0)
    13a0:	f90007b7          	lui	a5,0xf9000
    13a4:	17fd                	addi	a5,a5,-1
    13a6:	8ff9                	and	a5,a5,a4
    13a8:	fef42c23          	sw	a5,-8(s0)
    13ac:	400107b7          	lui	a5,0x40010
    13b0:	43d4                	lw	a3,4(a5)
    13b2:	400107b7          	lui	a5,0x40010
    13b6:	f9000737          	lui	a4,0xf9000
    13ba:	177d                	addi	a4,a4,-1
    13bc:	8f75                	and	a4,a4,a3
    13be:	c3d8                	sw	a4,4(a5)
    13c0:	fe442783          	lw	a5,-28(s0)
    13c4:	c3f9                	beqz	a5,148a <GPIO_PinRemapConfig+0x1d4>
    13c6:	fe842783          	lw	a5,-24(s0)
    13ca:	83d5                	srli	a5,a5,0x15
    13cc:	0792                	slli	a5,a5,0x4
    13ce:	ff442703          	lw	a4,-12(s0)
    13d2:	00f717b3          	sll	a5,a4,a5
    13d6:	ff842703          	lw	a4,-8(s0)
    13da:	8fd9                	or	a5,a5,a4
    13dc:	fef42c23          	sw	a5,-8(s0)
    13e0:	a06d                	j	148a <GPIO_PinRemapConfig+0x1d4>
    13e2:	fe842703          	lw	a4,-24(s0)
    13e6:	001007b7          	lui	a5,0x100
    13ea:	8ff9                	and	a5,a5,a4
    13ec:	cba9                	beqz	a5,143e <GPIO_PinRemapConfig+0x188>
    13ee:	fec42783          	lw	a5,-20(s0)
    13f2:	470d                	li	a4,3
    13f4:	00f717b3          	sll	a5,a4,a5
    13f8:	fef42823          	sw	a5,-16(s0)
    13fc:	ff042783          	lw	a5,-16(s0)
    1400:	fff7c793          	not	a5,a5
    1404:	ff842703          	lw	a4,-8(s0)
    1408:	8ff9                	and	a5,a5,a4
    140a:	fef42c23          	sw	a5,-8(s0)
    140e:	ff842703          	lw	a4,-8(s0)
    1412:	070007b7          	lui	a5,0x7000
    1416:	8fd9                	or	a5,a5,a4
    1418:	fef42c23          	sw	a5,-8(s0)
    141c:	fe442783          	lw	a5,-28(s0)
    1420:	c7ad                	beqz	a5,148a <GPIO_PinRemapConfig+0x1d4>
    1422:	fe842783          	lw	a5,-24(s0)
    1426:	83d5                	srli	a5,a5,0x15
    1428:	0792                	slli	a5,a5,0x4
    142a:	ff442703          	lw	a4,-12(s0)
    142e:	00f717b3          	sll	a5,a4,a5
    1432:	ff842703          	lw	a4,-8(s0)
    1436:	8fd9                	or	a5,a5,a4
    1438:	fef42c23          	sw	a5,-8(s0)
    143c:	a0b9                	j	148a <GPIO_PinRemapConfig+0x1d4>
    143e:	fe842783          	lw	a5,-24(s0)
    1442:	83d5                	srli	a5,a5,0x15
    1444:	0792                	slli	a5,a5,0x4
    1446:	ff442703          	lw	a4,-12(s0)
    144a:	00f717b3          	sll	a5,a4,a5
    144e:	fff7c793          	not	a5,a5
    1452:	ff842703          	lw	a4,-8(s0)
    1456:	8ff9                	and	a5,a5,a4
    1458:	fef42c23          	sw	a5,-8(s0)
    145c:	ff842703          	lw	a4,-8(s0)
    1460:	070007b7          	lui	a5,0x7000
    1464:	8fd9                	or	a5,a5,a4
    1466:	fef42c23          	sw	a5,-8(s0)
    146a:	fe442783          	lw	a5,-28(s0)
    146e:	cf91                	beqz	a5,148a <GPIO_PinRemapConfig+0x1d4>
    1470:	fe842783          	lw	a5,-24(s0)
    1474:	83d5                	srli	a5,a5,0x15
    1476:	0792                	slli	a5,a5,0x4
    1478:	ff442703          	lw	a4,-12(s0)
    147c:	00f717b3          	sll	a5,a4,a5
    1480:	ff842703          	lw	a4,-8(s0)
    1484:	8fd9                	or	a5,a5,a4
    1486:	fef42c23          	sw	a5,-8(s0)
    148a:	400107b7          	lui	a5,0x40010
    148e:	ff842703          	lw	a4,-8(s0)
    1492:	c3d8                	sw	a4,4(a5)
    1494:	0001                	nop
    1496:	4462                	lw	s0,24(sp)
    1498:	0171                	addi	sp,sp,28
    149a:	8082                	ret

0000149c <GPIO_EXTILineConfig>:
    149c:	1151                	addi	sp,sp,-12
    149e:	c422                	sw	s0,8(sp)
    14a0:	0060                	addi	s0,sp,12
    14a2:	87aa                	mv	a5,a0
    14a4:	872e                	mv	a4,a1
    14a6:	fef40ba3          	sb	a5,-9(s0)
    14aa:	87ba                	mv	a5,a4
    14ac:	fef40b23          	sb	a5,-10(s0)
    14b0:	fe042c23          	sw	zero,-8(s0)
    14b4:	ff644783          	lbu	a5,-10(s0)
    14b8:	0786                	slli	a5,a5,0x1
    14ba:	470d                	li	a4,3
    14bc:	00f717b3          	sll	a5,a4,a5
    14c0:	fef42c23          	sw	a5,-8(s0)
    14c4:	400107b7          	lui	a5,0x40010
    14c8:	4794                	lw	a3,8(a5)
    14ca:	ff842783          	lw	a5,-8(s0)
    14ce:	fff7c713          	not	a4,a5
    14d2:	400107b7          	lui	a5,0x40010
    14d6:	8f75                	and	a4,a4,a3
    14d8:	c798                	sw	a4,8(a5)
    14da:	400107b7          	lui	a5,0x40010
    14de:	4798                	lw	a4,8(a5)
    14e0:	ff744683          	lbu	a3,-9(s0)
    14e4:	ff644783          	lbu	a5,-10(s0)
    14e8:	0786                	slli	a5,a5,0x1
    14ea:	00f697b3          	sll	a5,a3,a5
    14ee:	86be                	mv	a3,a5
    14f0:	400107b7          	lui	a5,0x40010
    14f4:	8f55                	or	a4,a4,a3
    14f6:	c798                	sw	a4,8(a5)
    14f8:	0001                	nop
    14fa:	4422                	lw	s0,8(sp)
    14fc:	0131                	addi	sp,sp,12
    14fe:	8082                	ret

00001500 <NVIC_PriorityGroupConfig>:
    1500:	1161                	addi	sp,sp,-8
    1502:	c222                	sw	s0,4(sp)
    1504:	0020                	addi	s0,sp,8
    1506:	fea42c23          	sw	a0,-8(s0)
    150a:	ff842703          	lw	a4,-8(s0)
    150e:	82e1a023          	sw	a4,-2016(gp) # 20000078 <NVIC_Priority_Group>
    1512:	0001                	nop
    1514:	4412                	lw	s0,4(sp)
    1516:	0121                	addi	sp,sp,8
    1518:	8082                	ret

0000151a <PWR_EnterSTANDBYMode>:
    151a:	1101                	addi	sp,sp,-32
    151c:	ce06                	sw	ra,28(sp)
    151e:	cc22                	sw	s0,24(sp)
    1520:	1000                	addi	s0,sp,32
    1522:	87aa                	mv	a5,a0
    1524:	fef401a3          	sb	a5,-29(s0)
    1528:	400077b7          	lui	a5,0x40007
    152c:	4398                	lw	a4,0(a5)
    152e:	400077b7          	lui	a5,0x40007
    1532:	9b75                	andi	a4,a4,-3
    1534:	c398                	sw	a4,0(a5)
    1536:	400077b7          	lui	a5,0x40007
    153a:	4398                	lw	a4,0(a5)
    153c:	400077b7          	lui	a5,0x40007
    1540:	00276713          	ori	a4,a4,2
    1544:	c398                	sw	a4,0(a5)
    1546:	e000e737          	lui	a4,0xe000e
    154a:	6785                	lui	a5,0x1
    154c:	97ba                	add	a5,a5,a4
    154e:	d107a783          	lw	a5,-752(a5) # d10 <SystemInit+0x54>
    1552:	e000e6b7          	lui	a3,0xe000e
    1556:	0047e713          	ori	a4,a5,4
    155a:	6785                	lui	a5,0x1
    155c:	97b6                	add	a5,a5,a3
    155e:	d0e7a823          	sw	a4,-752(a5) # d10 <SystemInit+0x54>
    1562:	fe344703          	lbu	a4,-29(s0)
    1566:	4785                	li	a5,1
    1568:	16f71063          	bne	a4,a5,16c8 <PWR_EnterSTANDBYMode+0x1ae>
    156c:	fe042823          	sw	zero,-16(s0)
    1570:	e000e737          	lui	a4,0xe000e
    1574:	6785                	lui	a5,0x1
    1576:	97ba                	add	a5,a5,a4
    1578:	d107a783          	lw	a5,-752(a5) # d10 <SystemInit+0x54>
    157c:	8b91                	andi	a5,a5,4
    157e:	cf9d                	beqz	a5,15bc <PWR_EnterSTANDBYMode+0xa2>
    1580:	08800793          	li	a5,136
    1584:	3007b073          	csrc	mstatus,a5
    1588:	0000100f          	fence.i
    158c:	400107b7          	lui	a5,0x40010
    1590:	40478793          	addi	a5,a5,1028 # 40010404 <__global_pointer$+0x2000fbac>
    1594:	439c                	lw	a5,0(a5)
    1596:	fef42823          	sw	a5,-16(s0)
    159a:	400107b7          	lui	a5,0x40010
    159e:	40078793          	addi	a5,a5,1024 # 40010400 <__global_pointer$+0x2000fba8>
    15a2:	4394                	lw	a3,0(a5)
    15a4:	400107b7          	lui	a5,0x40010
    15a8:	40478793          	addi	a5,a5,1028 # 40010404 <__global_pointer$+0x2000fbac>
    15ac:	4398                	lw	a4,0(a5)
    15ae:	400107b7          	lui	a5,0x40010
    15b2:	40478793          	addi	a5,a5,1028 # 40010404 <__global_pointer$+0x2000fbac>
    15b6:	8f55                	or	a4,a4,a3
    15b8:	c398                	sw	a4,0(a5)
    15ba:	a02d                	j	15e4 <PWR_EnterSTANDBYMode+0xca>
    15bc:	e000e737          	lui	a4,0xe000e
    15c0:	6785                	lui	a5,0x1
    15c2:	97ba                	add	a5,a5,a4
    15c4:	d107a783          	lw	a5,-752(a5) # d10 <SystemInit+0x54>
    15c8:	e000e6b7          	lui	a3,0xe000e
    15cc:	0107e713          	ori	a4,a5,16
    15d0:	6785                	lui	a5,0x1
    15d2:	97b6                	add	a5,a5,a3
    15d4:	d0e7a823          	sw	a4,-752(a5) # d10 <SystemInit+0x54>
    15d8:	08800793          	li	a5,136
    15dc:	3007b073          	csrc	mstatus,a5
    15e0:	0000100f          	fence.i
    15e4:	e000e737          	lui	a4,0xe000e
    15e8:	6785                	lui	a5,0x1
    15ea:	97ba                	add	a5,a5,a4
    15ec:	d107a783          	lw	a5,-752(a5) # d10 <SystemInit+0x54>
    15f0:	fef42623          	sw	a5,-20(s0)
    15f4:	e000e737          	lui	a4,0xe000e
    15f8:	6785                	lui	a5,0x1
    15fa:	97ba                	add	a5,a5,a4
    15fc:	d107a783          	lw	a5,-752(a5) # d10 <SystemInit+0x54>
    1600:	e000e6b7          	lui	a3,0xe000e
    1604:	0287e713          	ori	a4,a5,40
    1608:	6785                	lui	a5,0x1
    160a:	97b6                	add	a5,a5,a3
    160c:	d0e7a823          	sw	a4,-752(a5) # d10 <SystemInit+0x54>
    1610:	e000e737          	lui	a4,0xe000e
    1614:	6785                	lui	a5,0x1
    1616:	97ba                	add	a5,a5,a4
    1618:	d107a783          	lw	a5,-752(a5) # d10 <SystemInit+0x54>
    161c:	fdf7f713          	andi	a4,a5,-33
    1620:	fec42783          	lw	a5,-20(s0)
    1624:	0207f793          	andi	a5,a5,32
    1628:	e000e6b7          	lui	a3,0xe000e
    162c:	8f5d                	or	a4,a4,a5
    162e:	6785                	lui	a5,0x1
    1630:	97b6                	add	a5,a5,a3
    1632:	d0e7a823          	sw	a4,-752(a5) # d10 <SystemInit+0x54>
    1636:	e000e737          	lui	a4,0xe000e
    163a:	6785                	lui	a5,0x1
    163c:	97ba                	add	a5,a5,a4
    163e:	d107a783          	lw	a5,-752(a5) # d10 <SystemInit+0x54>
    1642:	e000e6b7          	lui	a3,0xe000e
    1646:	0087e713          	ori	a4,a5,8
    164a:	6785                	lui	a5,0x1
    164c:	97b6                	add	a5,a5,a3
    164e:	d0e7a823          	sw	a4,-752(a5) # d10 <SystemInit+0x54>
    1652:	454d                	li	a0,19
    1654:	1ffff097          	auipc	ra,0x1ffff
    1658:	9ac080e7          	jalr	-1620(ra) # 20000000 <WFE>
    165c:	e000e737          	lui	a4,0xe000e
    1660:	6785                	lui	a5,0x1
    1662:	97ba                	add	a5,a5,a4
    1664:	d107a783          	lw	a5,-752(a5) # d10 <SystemInit+0x54>
    1668:	e000e6b7          	lui	a3,0xe000e
    166c:	0087e713          	ori	a4,a5,8
    1670:	6785                	lui	a5,0x1
    1672:	97b6                	add	a5,a5,a3
    1674:	d0e7a823          	sw	a4,-752(a5) # d10 <SystemInit+0x54>
    1678:	454d                	li	a0,19
    167a:	1ffff097          	auipc	ra,0x1ffff
    167e:	986080e7          	jalr	-1658(ra) # 20000000 <WFE>
    1682:	e000e737          	lui	a4,0xe000e
    1686:	6785                	lui	a5,0x1
    1688:	97ba                	add	a5,a5,a4
    168a:	d107a783          	lw	a5,-752(a5) # d10 <SystemInit+0x54>
    168e:	8b91                	andi	a5,a5,4
    1690:	cb89                	beqz	a5,16a2 <PWR_EnterSTANDBYMode+0x188>
    1692:	400107b7          	lui	a5,0x40010
    1696:	40478793          	addi	a5,a5,1028 # 40010404 <__global_pointer$+0x2000fbac>
    169a:	ff042703          	lw	a4,-16(s0)
    169e:	c398                	sw	a4,0(a5)
    16a0:	a839                	j	16be <PWR_EnterSTANDBYMode+0x1a4>
    16a2:	e000e737          	lui	a4,0xe000e
    16a6:	6785                	lui	a5,0x1
    16a8:	97ba                	add	a5,a5,a4
    16aa:	d107a783          	lw	a5,-752(a5) # d10 <SystemInit+0x54>
    16ae:	e000e6b7          	lui	a3,0xe000e
    16b2:	fef7f713          	andi	a4,a5,-17
    16b6:	6785                	lui	a5,0x1
    16b8:	97b6                	add	a5,a5,a3
    16ba:	d0e7a823          	sw	a4,-752(a5) # d10 <SystemInit+0x54>
    16be:	08800793          	li	a5,136
    16c2:	3007a073          	csrs	mstatus,a5
    16c6:	aab1                	j	1822 <PWR_EnterSTANDBYMode+0x308>
    16c8:	fe042423          	sw	zero,-24(s0)
    16cc:	e000e737          	lui	a4,0xe000e
    16d0:	6785                	lui	a5,0x1
    16d2:	97ba                	add	a5,a5,a4
    16d4:	d107a783          	lw	a5,-752(a5) # d10 <SystemInit+0x54>
    16d8:	8b91                	andi	a5,a5,4
    16da:	cf9d                	beqz	a5,1718 <PWR_EnterSTANDBYMode+0x1fe>
    16dc:	08800793          	li	a5,136
    16e0:	3007b073          	csrc	mstatus,a5
    16e4:	0000100f          	fence.i
    16e8:	400107b7          	lui	a5,0x40010
    16ec:	40478793          	addi	a5,a5,1028 # 40010404 <__global_pointer$+0x2000fbac>
    16f0:	439c                	lw	a5,0(a5)
    16f2:	fef42423          	sw	a5,-24(s0)
    16f6:	400107b7          	lui	a5,0x40010
    16fa:	40078793          	addi	a5,a5,1024 # 40010400 <__global_pointer$+0x2000fba8>
    16fe:	4394                	lw	a3,0(a5)
    1700:	400107b7          	lui	a5,0x40010
    1704:	40478793          	addi	a5,a5,1028 # 40010404 <__global_pointer$+0x2000fbac>
    1708:	4398                	lw	a4,0(a5)
    170a:	400107b7          	lui	a5,0x40010
    170e:	40478793          	addi	a5,a5,1028 # 40010404 <__global_pointer$+0x2000fbac>
    1712:	8f55                	or	a4,a4,a3
    1714:	c398                	sw	a4,0(a5)
    1716:	a02d                	j	1740 <PWR_EnterSTANDBYMode+0x226>
    1718:	e000e737          	lui	a4,0xe000e
    171c:	6785                	lui	a5,0x1
    171e:	97ba                	add	a5,a5,a4
    1720:	d107a783          	lw	a5,-752(a5) # d10 <SystemInit+0x54>
    1724:	e000e6b7          	lui	a3,0xe000e
    1728:	0107e713          	ori	a4,a5,16
    172c:	6785                	lui	a5,0x1
    172e:	97b6                	add	a5,a5,a3
    1730:	d0e7a823          	sw	a4,-752(a5) # d10 <SystemInit+0x54>
    1734:	08800793          	li	a5,136
    1738:	3007b073          	csrc	mstatus,a5
    173c:	0000100f          	fence.i
    1740:	e000e737          	lui	a4,0xe000e
    1744:	6785                	lui	a5,0x1
    1746:	97ba                	add	a5,a5,a4
    1748:	d107a783          	lw	a5,-752(a5) # d10 <SystemInit+0x54>
    174c:	fef42223          	sw	a5,-28(s0)
    1750:	e000e737          	lui	a4,0xe000e
    1754:	6785                	lui	a5,0x1
    1756:	97ba                	add	a5,a5,a4
    1758:	d107a783          	lw	a5,-752(a5) # d10 <SystemInit+0x54>
    175c:	e000e6b7          	lui	a3,0xe000e
    1760:	0287e713          	ori	a4,a5,40
    1764:	6785                	lui	a5,0x1
    1766:	97b6                	add	a5,a5,a3
    1768:	d0e7a823          	sw	a4,-752(a5) # d10 <SystemInit+0x54>
    176c:	e000e737          	lui	a4,0xe000e
    1770:	6785                	lui	a5,0x1
    1772:	97ba                	add	a5,a5,a4
    1774:	d107a783          	lw	a5,-752(a5) # d10 <SystemInit+0x54>
    1778:	fdf7f713          	andi	a4,a5,-33
    177c:	fe442783          	lw	a5,-28(s0)
    1780:	0207f793          	andi	a5,a5,32
    1784:	e000e6b7          	lui	a3,0xe000e
    1788:	8f5d                	or	a4,a4,a5
    178a:	6785                	lui	a5,0x1
    178c:	97b6                	add	a5,a5,a3
    178e:	d0e7a823          	sw	a4,-752(a5) # d10 <SystemInit+0x54>
    1792:	e000e737          	lui	a4,0xe000e
    1796:	6785                	lui	a5,0x1
    1798:	97ba                	add	a5,a5,a4
    179a:	d107a783          	lw	a5,-752(a5) # d10 <SystemInit+0x54>
    179e:	e000e6b7          	lui	a3,0xe000e
    17a2:	0087e713          	ori	a4,a5,8
    17a6:	6785                	lui	a5,0x1
    17a8:	97b6                	add	a5,a5,a3
    17aa:	d0e7a823          	sw	a4,-752(a5) # d10 <SystemInit+0x54>
    17ae:	454d                	li	a0,19
    17b0:	1ffff097          	auipc	ra,0x1ffff
    17b4:	850080e7          	jalr	-1968(ra) # 20000000 <WFE>
    17b8:	e000e737          	lui	a4,0xe000e
    17bc:	6785                	lui	a5,0x1
    17be:	97ba                	add	a5,a5,a4
    17c0:	d107a783          	lw	a5,-752(a5) # d10 <SystemInit+0x54>
    17c4:	e000e6b7          	lui	a3,0xe000e
    17c8:	0087e713          	ori	a4,a5,8
    17cc:	6785                	lui	a5,0x1
    17ce:	97b6                	add	a5,a5,a3
    17d0:	d0e7a823          	sw	a4,-752(a5) # d10 <SystemInit+0x54>
    17d4:	454d                	li	a0,19
    17d6:	1ffff097          	auipc	ra,0x1ffff
    17da:	82a080e7          	jalr	-2006(ra) # 20000000 <WFE>
    17de:	e000e737          	lui	a4,0xe000e
    17e2:	6785                	lui	a5,0x1
    17e4:	97ba                	add	a5,a5,a4
    17e6:	d107a783          	lw	a5,-752(a5) # d10 <SystemInit+0x54>
    17ea:	8b91                	andi	a5,a5,4
    17ec:	cb89                	beqz	a5,17fe <PWR_EnterSTANDBYMode+0x2e4>
    17ee:	400107b7          	lui	a5,0x40010
    17f2:	40478793          	addi	a5,a5,1028 # 40010404 <__global_pointer$+0x2000fbac>
    17f6:	fe842703          	lw	a4,-24(s0)
    17fa:	c398                	sw	a4,0(a5)
    17fc:	a839                	j	181a <PWR_EnterSTANDBYMode+0x300>
    17fe:	e000e737          	lui	a4,0xe000e
    1802:	6785                	lui	a5,0x1
    1804:	97ba                	add	a5,a5,a4
    1806:	d107a783          	lw	a5,-752(a5) # d10 <SystemInit+0x54>
    180a:	e000e6b7          	lui	a3,0xe000e
    180e:	fef7f713          	andi	a4,a5,-17
    1812:	6785                	lui	a5,0x1
    1814:	97b6                	add	a5,a5,a3
    1816:	d0e7a823          	sw	a4,-752(a5) # d10 <SystemInit+0x54>
    181a:	08800793          	li	a5,136
    181e:	3007a073          	csrs	mstatus,a5
    1822:	e000e737          	lui	a4,0xe000e
    1826:	6785                	lui	a5,0x1
    1828:	97ba                	add	a5,a5,a4
    182a:	d107a783          	lw	a5,-752(a5) # d10 <SystemInit+0x54>
    182e:	e000e6b7          	lui	a3,0xe000e
    1832:	ffb7f713          	andi	a4,a5,-5
    1836:	6785                	lui	a5,0x1
    1838:	97b6                	add	a5,a5,a3
    183a:	d0e7a823          	sw	a4,-752(a5) # d10 <SystemInit+0x54>
    183e:	0001                	nop
    1840:	40f2                	lw	ra,28(sp)
    1842:	4462                	lw	s0,24(sp)
    1844:	6105                	addi	sp,sp,32
    1846:	8082                	ret

00001848 <RCC_AdjustHSICalibrationValue>:
    1848:	1151                	addi	sp,sp,-12
    184a:	c422                	sw	s0,8(sp)
    184c:	0060                	addi	s0,sp,12
    184e:	87aa                	mv	a5,a0
    1850:	fef40ba3          	sb	a5,-9(s0)
    1854:	fe042c23          	sw	zero,-8(s0)
    1858:	400217b7          	lui	a5,0x40021
    185c:	439c                	lw	a5,0(a5)
    185e:	fef42c23          	sw	a5,-8(s0)
    1862:	ff842783          	lw	a5,-8(s0)
    1866:	f077f793          	andi	a5,a5,-249
    186a:	fef42c23          	sw	a5,-8(s0)
    186e:	ff744783          	lbu	a5,-9(s0)
    1872:	078e                	slli	a5,a5,0x3
    1874:	ff842703          	lw	a4,-8(s0)
    1878:	8fd9                	or	a5,a5,a4
    187a:	fef42c23          	sw	a5,-8(s0)
    187e:	400217b7          	lui	a5,0x40021
    1882:	ff842703          	lw	a4,-8(s0)
    1886:	c398                	sw	a4,0(a5)
    1888:	0001                	nop
    188a:	4422                	lw	s0,8(sp)
    188c:	0131                	addi	sp,sp,12
    188e:	8082                	ret

00001890 <RCC_GetClocksFreq>:
    1890:	1111                	addi	sp,sp,-28
    1892:	cc06                	sw	ra,24(sp)
    1894:	ca22                	sw	s0,20(sp)
    1896:	0860                	addi	s0,sp,28
    1898:	fea42223          	sw	a0,-28(s0)
    189c:	fe042823          	sw	zero,-16(s0)
    18a0:	fe042623          	sw	zero,-20(s0)
    18a4:	fe042423          	sw	zero,-24(s0)
    18a8:	400217b7          	lui	a5,0x40021
    18ac:	43dc                	lw	a5,4(a5)
    18ae:	8bb1                	andi	a5,a5,12
    18b0:	fef42823          	sw	a5,-16(s0)
    18b4:	ff042703          	lw	a4,-16(s0)
    18b8:	4791                	li	a5,4
    18ba:	02f70263          	beq	a4,a5,18de <RCC_GetClocksFreq+0x4e>
    18be:	ff042703          	lw	a4,-16(s0)
    18c2:	47a1                	li	a5,8
    18c4:	02f70563          	beq	a4,a5,18ee <RCC_GetClocksFreq+0x5e>
    18c8:	ff042783          	lw	a5,-16(s0)
    18cc:	ebb9                	bnez	a5,1922 <RCC_GetClocksFreq+0x92>
    18ce:	fe442783          	lw	a5,-28(s0)
    18d2:	016e3737          	lui	a4,0x16e3
    18d6:	60070713          	addi	a4,a4,1536 # 16e3600 <_data_lma+0x16e0f00>
    18da:	c398                	sw	a4,0(a5)
    18dc:	a899                	j	1932 <RCC_GetClocksFreq+0xa2>
    18de:	fe442783          	lw	a5,-28(s0)
    18e2:	016e3737          	lui	a4,0x16e3
    18e6:	60070713          	addi	a4,a4,1536 # 16e3600 <_data_lma+0x16e0f00>
    18ea:	c398                	sw	a4,0(a5)
    18ec:	a099                	j	1932 <RCC_GetClocksFreq+0xa2>
    18ee:	400217b7          	lui	a5,0x40021
    18f2:	43d8                	lw	a4,4(a5)
    18f4:	67c1                	lui	a5,0x10
    18f6:	8ff9                	and	a5,a5,a4
    18f8:	fef42623          	sw	a5,-20(s0)
    18fc:	fec42783          	lw	a5,-20(s0)
    1900:	eb89                	bnez	a5,1912 <RCC_GetClocksFreq+0x82>
    1902:	fe442783          	lw	a5,-28(s0)
    1906:	02dc7737          	lui	a4,0x2dc7
    190a:	c0070713          	addi	a4,a4,-1024 # 2dc6c00 <_data_lma+0x2dc4500>
    190e:	c398                	sw	a4,0(a5)
    1910:	a00d                	j	1932 <RCC_GetClocksFreq+0xa2>
    1912:	fe442783          	lw	a5,-28(s0)
    1916:	02dc7737          	lui	a4,0x2dc7
    191a:	c0070713          	addi	a4,a4,-1024 # 2dc6c00 <_data_lma+0x2dc4500>
    191e:	c398                	sw	a4,0(a5)
    1920:	a809                	j	1932 <RCC_GetClocksFreq+0xa2>
    1922:	fe442783          	lw	a5,-28(s0)
    1926:	016e3737          	lui	a4,0x16e3
    192a:	60070713          	addi	a4,a4,1536 # 16e3600 <_data_lma+0x16e0f00>
    192e:	c398                	sw	a4,0(a5)
    1930:	0001                	nop
    1932:	400217b7          	lui	a5,0x40021
    1936:	43dc                	lw	a5,4(a5)
    1938:	0f07f793          	andi	a5,a5,240
    193c:	fef42823          	sw	a5,-16(s0)
    1940:	ff042783          	lw	a5,-16(s0)
    1944:	8391                	srli	a5,a5,0x4
    1946:	fef42823          	sw	a5,-16(s0)
    194a:	200007b7          	lui	a5,0x20000
    194e:	03078713          	addi	a4,a5,48 # 20000030 <APBAHBPrescTable>
    1952:	ff042783          	lw	a5,-16(s0)
    1956:	97ba                	add	a5,a5,a4
    1958:	239c                	lbu	a5,0(a5)
    195a:	0ff7f793          	andi	a5,a5,255
    195e:	fef42423          	sw	a5,-24(s0)
    1962:	400217b7          	lui	a5,0x40021
    1966:	43dc                	lw	a5,4(a5)
    1968:	0807f793          	andi	a5,a5,128
    196c:	ef99                	bnez	a5,198a <RCC_GetClocksFreq+0xfa>
    196e:	fe442783          	lw	a5,-28(s0)
    1972:	439c                	lw	a5,0(a5)
    1974:	fe842583          	lw	a1,-24(s0)
    1978:	853e                	mv	a0,a5
    197a:	f62fe0ef          	jal	ra,dc <__udivsi3>
    197e:	87aa                	mv	a5,a0
    1980:	873e                	mv	a4,a5
    1982:	fe442783          	lw	a5,-28(s0)
    1986:	c3d8                	sw	a4,4(a5)
    1988:	a819                	j	199e <RCC_GetClocksFreq+0x10e>
    198a:	fe442783          	lw	a5,-28(s0)
    198e:	4398                	lw	a4,0(a5)
    1990:	fe842783          	lw	a5,-24(s0)
    1994:	00f75733          	srl	a4,a4,a5
    1998:	fe442783          	lw	a5,-28(s0)
    199c:	c3d8                	sw	a4,4(a5)
    199e:	fe442783          	lw	a5,-28(s0)
    19a2:	43d8                	lw	a4,4(a5)
    19a4:	fe442783          	lw	a5,-28(s0)
    19a8:	c798                	sw	a4,8(a5)
    19aa:	fe442783          	lw	a5,-28(s0)
    19ae:	43d8                	lw	a4,4(a5)
    19b0:	fe442783          	lw	a5,-28(s0)
    19b4:	c7d8                	sw	a4,12(a5)
    19b6:	400217b7          	lui	a5,0x40021
    19ba:	43d8                	lw	a4,4(a5)
    19bc:	67c1                	lui	a5,0x10
    19be:	80078793          	addi	a5,a5,-2048 # f800 <_data_lma+0xd100>
    19c2:	8ff9                	and	a5,a5,a4
    19c4:	fef42823          	sw	a5,-16(s0)
    19c8:	ff042783          	lw	a5,-16(s0)
    19cc:	83ad                	srli	a5,a5,0xb
    19ce:	fef42823          	sw	a5,-16(s0)
    19d2:	ff042783          	lw	a5,-16(s0)
    19d6:	838d                	srli	a5,a5,0x3
    19d8:	0037f713          	andi	a4,a5,3
    19dc:	ff042783          	lw	a5,-16(s0)
    19e0:	078a                	slli	a5,a5,0x2
    19e2:	8bf1                	andi	a5,a5,28
    19e4:	8fd9                	or	a5,a5,a4
    19e6:	fef42823          	sw	a5,-16(s0)
    19ea:	ff042783          	lw	a5,-16(s0)
    19ee:	0137f713          	andi	a4,a5,19
    19f2:	478d                	li	a5,3
    19f4:	00e7f863          	bgeu	a5,a4,1a04 <RCC_GetClocksFreq+0x174>
    19f8:	ff042783          	lw	a5,-16(s0)
    19fc:	17d1                	addi	a5,a5,-12
    19fe:	fef42823          	sw	a5,-16(s0)
    1a02:	a031                	j	1a0e <RCC_GetClocksFreq+0x17e>
    1a04:	ff042783          	lw	a5,-16(s0)
    1a08:	8b8d                	andi	a5,a5,3
    1a0a:	fef42823          	sw	a5,-16(s0)
    1a0e:	200007b7          	lui	a5,0x20000
    1a12:	04078713          	addi	a4,a5,64 # 20000040 <ADCPrescTable>
    1a16:	ff042783          	lw	a5,-16(s0)
    1a1a:	97ba                	add	a5,a5,a4
    1a1c:	239c                	lbu	a5,0(a5)
    1a1e:	0ff7f793          	andi	a5,a5,255
    1a22:	fef42423          	sw	a5,-24(s0)
    1a26:	fe442783          	lw	a5,-28(s0)
    1a2a:	47dc                	lw	a5,12(a5)
    1a2c:	fe842583          	lw	a1,-24(s0)
    1a30:	853e                	mv	a0,a5
    1a32:	eaafe0ef          	jal	ra,dc <__udivsi3>
    1a36:	87aa                	mv	a5,a0
    1a38:	873e                	mv	a4,a5
    1a3a:	fe442783          	lw	a5,-28(s0)
    1a3e:	cb98                	sw	a4,16(a5)
    1a40:	0001                	nop
    1a42:	40e2                	lw	ra,24(sp)
    1a44:	4452                	lw	s0,20(sp)
    1a46:	0171                	addi	sp,sp,28
    1a48:	8082                	ret

00001a4a <RCC_APB2PeriphClockCmd>:
    1a4a:	1151                	addi	sp,sp,-12
    1a4c:	c422                	sw	s0,8(sp)
    1a4e:	0060                	addi	s0,sp,12
    1a50:	fea42c23          	sw	a0,-8(s0)
    1a54:	feb42a23          	sw	a1,-12(s0)
    1a58:	ff442783          	lw	a5,-12(s0)
    1a5c:	cb99                	beqz	a5,1a72 <RCC_APB2PeriphClockCmd+0x28>
    1a5e:	400217b7          	lui	a5,0x40021
    1a62:	4f94                	lw	a3,24(a5)
    1a64:	400217b7          	lui	a5,0x40021
    1a68:	ff842703          	lw	a4,-8(s0)
    1a6c:	8f55                	or	a4,a4,a3
    1a6e:	cf98                	sw	a4,24(a5)
    1a70:	a821                	j	1a88 <RCC_APB2PeriphClockCmd+0x3e>
    1a72:	400217b7          	lui	a5,0x40021
    1a76:	4f94                	lw	a3,24(a5)
    1a78:	ff842783          	lw	a5,-8(s0)
    1a7c:	fff7c713          	not	a4,a5
    1a80:	400217b7          	lui	a5,0x40021
    1a84:	8f75                	and	a4,a4,a3
    1a86:	cf98                	sw	a4,24(a5)
    1a88:	0001                	nop
    1a8a:	4422                	lw	s0,8(sp)
    1a8c:	0131                	addi	sp,sp,12
    1a8e:	8082                	ret

00001a90 <RCC_APB1PeriphClockCmd>:
    1a90:	1151                	addi	sp,sp,-12
    1a92:	c422                	sw	s0,8(sp)
    1a94:	0060                	addi	s0,sp,12
    1a96:	fea42c23          	sw	a0,-8(s0)
    1a9a:	feb42a23          	sw	a1,-12(s0)
    1a9e:	ff442783          	lw	a5,-12(s0)
    1aa2:	cb99                	beqz	a5,1ab8 <RCC_APB1PeriphClockCmd+0x28>
    1aa4:	400217b7          	lui	a5,0x40021
    1aa8:	4fd4                	lw	a3,28(a5)
    1aaa:	400217b7          	lui	a5,0x40021
    1aae:	ff842703          	lw	a4,-8(s0)
    1ab2:	8f55                	or	a4,a4,a3
    1ab4:	cfd8                	sw	a4,28(a5)
    1ab6:	a821                	j	1ace <RCC_APB1PeriphClockCmd+0x3e>
    1ab8:	400217b7          	lui	a5,0x40021
    1abc:	4fd4                	lw	a3,28(a5)
    1abe:	ff842783          	lw	a5,-8(s0)
    1ac2:	fff7c713          	not	a4,a5
    1ac6:	400217b7          	lui	a5,0x40021
    1aca:	8f75                	and	a4,a4,a3
    1acc:	cfd8                	sw	a4,28(a5)
    1ace:	0001                	nop
    1ad0:	4422                	lw	s0,8(sp)
    1ad2:	0131                	addi	sp,sp,12
    1ad4:	8082                	ret

00001ad6 <USART_Init>:
    1ad6:	fc410113          	addi	sp,sp,-60
    1ada:	dc06                	sw	ra,56(sp)
    1adc:	da22                	sw	s0,52(sp)
    1ade:	1860                	addi	s0,sp,60
    1ae0:	fca42423          	sw	a0,-56(s0)
    1ae4:	fcb42223          	sw	a1,-60(s0)
    1ae8:	fe042823          	sw	zero,-16(s0)
    1aec:	fe042623          	sw	zero,-20(s0)
    1af0:	fe042423          	sw	zero,-24(s0)
    1af4:	fe042223          	sw	zero,-28(s0)
    1af8:	fe042023          	sw	zero,-32(s0)
    1afc:	fc842783          	lw	a5,-56(s0)
    1b00:	fef42023          	sw	a5,-32(s0)
    1b04:	fc842783          	lw	a5,-56(s0)
    1b08:	2b9e                	lhu	a5,16(a5)
    1b0a:	07c2                	slli	a5,a5,0x10
    1b0c:	83c1                	srli	a5,a5,0x10
    1b0e:	fef42823          	sw	a5,-16(s0)
    1b12:	ff042703          	lw	a4,-16(s0)
    1b16:	67b5                	lui	a5,0xd
    1b18:	17fd                	addi	a5,a5,-1
    1b1a:	8ff9                	and	a5,a5,a4
    1b1c:	fef42823          	sw	a5,-16(s0)
    1b20:	fc442783          	lw	a5,-60(s0)
    1b24:	23fe                	lhu	a5,6(a5)
    1b26:	873e                	mv	a4,a5
    1b28:	ff042783          	lw	a5,-16(s0)
    1b2c:	8fd9                	or	a5,a5,a4
    1b2e:	fef42823          	sw	a5,-16(s0)
    1b32:	ff042783          	lw	a5,-16(s0)
    1b36:	01079713          	slli	a4,a5,0x10
    1b3a:	8341                	srli	a4,a4,0x10
    1b3c:	fc842783          	lw	a5,-56(s0)
    1b40:	ab9a                	sh	a4,16(a5)
    1b42:	fc842783          	lw	a5,-56(s0)
    1b46:	27de                	lhu	a5,12(a5)
    1b48:	07c2                	slli	a5,a5,0x10
    1b4a:	83c1                	srli	a5,a5,0x10
    1b4c:	fef42823          	sw	a5,-16(s0)
    1b50:	ff042703          	lw	a4,-16(s0)
    1b54:	67bd                	lui	a5,0xf
    1b56:	9f378793          	addi	a5,a5,-1549 # e9f3 <_data_lma+0xc2f3>
    1b5a:	8ff9                	and	a5,a5,a4
    1b5c:	fef42823          	sw	a5,-16(s0)
    1b60:	fc442783          	lw	a5,-60(s0)
    1b64:	23da                	lhu	a4,4(a5)
    1b66:	fc442783          	lw	a5,-60(s0)
    1b6a:	279e                	lhu	a5,8(a5)
    1b6c:	8fd9                	or	a5,a5,a4
    1b6e:	01079713          	slli	a4,a5,0x10
    1b72:	8341                	srli	a4,a4,0x10
    1b74:	fc442783          	lw	a5,-60(s0)
    1b78:	27be                	lhu	a5,10(a5)
    1b7a:	8fd9                	or	a5,a5,a4
    1b7c:	07c2                	slli	a5,a5,0x10
    1b7e:	83c1                	srli	a5,a5,0x10
    1b80:	873e                	mv	a4,a5
    1b82:	ff042783          	lw	a5,-16(s0)
    1b86:	8fd9                	or	a5,a5,a4
    1b88:	fef42823          	sw	a5,-16(s0)
    1b8c:	ff042783          	lw	a5,-16(s0)
    1b90:	01079713          	slli	a4,a5,0x10
    1b94:	8341                	srli	a4,a4,0x10
    1b96:	fc842783          	lw	a5,-56(s0)
    1b9a:	a7da                	sh	a4,12(a5)
    1b9c:	fc842783          	lw	a5,-56(s0)
    1ba0:	2bde                	lhu	a5,20(a5)
    1ba2:	07c2                	slli	a5,a5,0x10
    1ba4:	83c1                	srli	a5,a5,0x10
    1ba6:	fef42823          	sw	a5,-16(s0)
    1baa:	ff042703          	lw	a4,-16(s0)
    1bae:	67c1                	lui	a5,0x10
    1bb0:	cff78793          	addi	a5,a5,-769 # fcff <_data_lma+0xd5ff>
    1bb4:	8ff9                	and	a5,a5,a4
    1bb6:	fef42823          	sw	a5,-16(s0)
    1bba:	fc442783          	lw	a5,-60(s0)
    1bbe:	27de                	lhu	a5,12(a5)
    1bc0:	873e                	mv	a4,a5
    1bc2:	ff042783          	lw	a5,-16(s0)
    1bc6:	8fd9                	or	a5,a5,a4
    1bc8:	fef42823          	sw	a5,-16(s0)
    1bcc:	ff042783          	lw	a5,-16(s0)
    1bd0:	01079713          	slli	a4,a5,0x10
    1bd4:	8341                	srli	a4,a4,0x10
    1bd6:	fc842783          	lw	a5,-56(s0)
    1bda:	abda                	sh	a4,20(a5)
    1bdc:	fcc40793          	addi	a5,s0,-52
    1be0:	853e                	mv	a0,a5
    1be2:	317d                	jal	1890 <RCC_GetClocksFreq>
    1be4:	fe042703          	lw	a4,-32(s0)
    1be8:	400147b7          	lui	a5,0x40014
    1bec:	80078793          	addi	a5,a5,-2048 # 40013800 <__global_pointer$+0x20012fa8>
    1bf0:	00f71763          	bne	a4,a5,1bfe <USART_Init+0x128>
    1bf4:	fd842783          	lw	a5,-40(s0)
    1bf8:	fef42623          	sw	a5,-20(s0)
    1bfc:	a029                	j	1c06 <USART_Init+0x130>
    1bfe:	fd442783          	lw	a5,-44(s0)
    1c02:	fef42623          	sw	a5,-20(s0)
    1c06:	fc842783          	lw	a5,-56(s0)
    1c0a:	27de                	lhu	a5,12(a5)
    1c0c:	07c2                	slli	a5,a5,0x10
    1c0e:	83c1                	srli	a5,a5,0x10
    1c10:	07c2                	slli	a5,a5,0x10
    1c12:	87c1                	srai	a5,a5,0x10
    1c14:	0207d563          	bgez	a5,1c3e <USART_Init+0x168>
    1c18:	fec42703          	lw	a4,-20(s0)
    1c1c:	87ba                	mv	a5,a4
    1c1e:	0786                	slli	a5,a5,0x1
    1c20:	97ba                	add	a5,a5,a4
    1c22:	078e                	slli	a5,a5,0x3
    1c24:	973e                	add	a4,a4,a5
    1c26:	fc442783          	lw	a5,-60(s0)
    1c2a:	439c                	lw	a5,0(a5)
    1c2c:	0786                	slli	a5,a5,0x1
    1c2e:	85be                	mv	a1,a5
    1c30:	853a                	mv	a0,a4
    1c32:	caafe0ef          	jal	ra,dc <__udivsi3>
    1c36:	87aa                	mv	a5,a0
    1c38:	fef42423          	sw	a5,-24(s0)
    1c3c:	a01d                	j	1c62 <USART_Init+0x18c>
    1c3e:	fec42703          	lw	a4,-20(s0)
    1c42:	87ba                	mv	a5,a4
    1c44:	0786                	slli	a5,a5,0x1
    1c46:	97ba                	add	a5,a5,a4
    1c48:	078e                	slli	a5,a5,0x3
    1c4a:	973e                	add	a4,a4,a5
    1c4c:	fc442783          	lw	a5,-60(s0)
    1c50:	439c                	lw	a5,0(a5)
    1c52:	078a                	slli	a5,a5,0x2
    1c54:	85be                	mv	a1,a5
    1c56:	853a                	mv	a0,a4
    1c58:	c84fe0ef          	jal	ra,dc <__udivsi3>
    1c5c:	87aa                	mv	a5,a0
    1c5e:	fef42423          	sw	a5,-24(s0)
    1c62:	fe842783          	lw	a5,-24(s0)
    1c66:	06400593          	li	a1,100
    1c6a:	853e                	mv	a0,a5
    1c6c:	c70fe0ef          	jal	ra,dc <__udivsi3>
    1c70:	87aa                	mv	a5,a0
    1c72:	0792                	slli	a5,a5,0x4
    1c74:	fef42823          	sw	a5,-16(s0)
    1c78:	ff042783          	lw	a5,-16(s0)
    1c7c:	0047d713          	srli	a4,a5,0x4
    1c80:	87ba                	mv	a5,a4
    1c82:	0786                	slli	a5,a5,0x1
    1c84:	97ba                	add	a5,a5,a4
    1c86:	078e                	slli	a5,a5,0x3
    1c88:	97ba                	add	a5,a5,a4
    1c8a:	078a                	slli	a5,a5,0x2
    1c8c:	873e                	mv	a4,a5
    1c8e:	fe842783          	lw	a5,-24(s0)
    1c92:	8f99                	sub	a5,a5,a4
    1c94:	fef42223          	sw	a5,-28(s0)
    1c98:	fc842783          	lw	a5,-56(s0)
    1c9c:	27de                	lhu	a5,12(a5)
    1c9e:	07c2                	slli	a5,a5,0x10
    1ca0:	83c1                	srli	a5,a5,0x10
    1ca2:	07c2                	slli	a5,a5,0x10
    1ca4:	87c1                	srai	a5,a5,0x10
    1ca6:	0207d463          	bgez	a5,1cce <USART_Init+0x1f8>
    1caa:	fe442783          	lw	a5,-28(s0)
    1cae:	078e                	slli	a5,a5,0x3
    1cb0:	03278793          	addi	a5,a5,50
    1cb4:	06400593          	li	a1,100
    1cb8:	853e                	mv	a0,a5
    1cba:	c22fe0ef          	jal	ra,dc <__udivsi3>
    1cbe:	87aa                	mv	a5,a0
    1cc0:	8b9d                	andi	a5,a5,7
    1cc2:	ff042703          	lw	a4,-16(s0)
    1cc6:	8fd9                	or	a5,a5,a4
    1cc8:	fef42823          	sw	a5,-16(s0)
    1ccc:	a015                	j	1cf0 <USART_Init+0x21a>
    1cce:	fe442783          	lw	a5,-28(s0)
    1cd2:	0792                	slli	a5,a5,0x4
    1cd4:	03278793          	addi	a5,a5,50
    1cd8:	06400593          	li	a1,100
    1cdc:	853e                	mv	a0,a5
    1cde:	bfefe0ef          	jal	ra,dc <__udivsi3>
    1ce2:	87aa                	mv	a5,a0
    1ce4:	8bbd                	andi	a5,a5,15
    1ce6:	ff042703          	lw	a4,-16(s0)
    1cea:	8fd9                	or	a5,a5,a4
    1cec:	fef42823          	sw	a5,-16(s0)
    1cf0:	ff042783          	lw	a5,-16(s0)
    1cf4:	01079713          	slli	a4,a5,0x10
    1cf8:	8341                	srli	a4,a4,0x10
    1cfa:	fc842783          	lw	a5,-56(s0)
    1cfe:	a79a                	sh	a4,8(a5)
    1d00:	0001                	nop
    1d02:	50e2                	lw	ra,56(sp)
    1d04:	5452                	lw	s0,52(sp)
    1d06:	03c10113          	addi	sp,sp,60
    1d0a:	8082                	ret

00001d0c <USART_Cmd>:
    1d0c:	1151                	addi	sp,sp,-12
    1d0e:	c422                	sw	s0,8(sp)
    1d10:	0060                	addi	s0,sp,12
    1d12:	fea42c23          	sw	a0,-8(s0)
    1d16:	feb42a23          	sw	a1,-12(s0)
    1d1a:	ff442783          	lw	a5,-12(s0)
    1d1e:	c385                	beqz	a5,1d3e <USART_Cmd+0x32>
    1d20:	ff842783          	lw	a5,-8(s0)
    1d24:	27de                	lhu	a5,12(a5)
    1d26:	01079713          	slli	a4,a5,0x10
    1d2a:	8341                	srli	a4,a4,0x10
    1d2c:	6789                	lui	a5,0x2
    1d2e:	8fd9                	or	a5,a5,a4
    1d30:	01079713          	slli	a4,a5,0x10
    1d34:	8341                	srli	a4,a4,0x10
    1d36:	ff842783          	lw	a5,-8(s0)
    1d3a:	a7da                	sh	a4,12(a5)
    1d3c:	a005                	j	1d5c <USART_Cmd+0x50>
    1d3e:	ff842783          	lw	a5,-8(s0)
    1d42:	27de                	lhu	a5,12(a5)
    1d44:	01079713          	slli	a4,a5,0x10
    1d48:	8341                	srli	a4,a4,0x10
    1d4a:	77f9                	lui	a5,0xffffe
    1d4c:	17fd                	addi	a5,a5,-1
    1d4e:	8ff9                	and	a5,a5,a4
    1d50:	01079713          	slli	a4,a5,0x10
    1d54:	8341                	srli	a4,a4,0x10
    1d56:	ff842783          	lw	a5,-8(s0)
    1d5a:	a7da                	sh	a4,12(a5)
    1d5c:	0001                	nop
    1d5e:	4422                	lw	s0,8(sp)
    1d60:	0131                	addi	sp,sp,12
    1d62:	8082                	ret

00001d64 <USART_SendData>:
    1d64:	1151                	addi	sp,sp,-12
    1d66:	c422                	sw	s0,8(sp)
    1d68:	0060                	addi	s0,sp,12
    1d6a:	fea42c23          	sw	a0,-8(s0)
    1d6e:	87ae                	mv	a5,a1
    1d70:	fef41b23          	sh	a5,-10(s0)
    1d74:	ff645783          	lhu	a5,-10(s0)
    1d78:	1ff7f793          	andi	a5,a5,511
    1d7c:	01079713          	slli	a4,a5,0x10
    1d80:	8341                	srli	a4,a4,0x10
    1d82:	ff842783          	lw	a5,-8(s0)
    1d86:	a3da                	sh	a4,4(a5)
    1d88:	0001                	nop
    1d8a:	4422                	lw	s0,8(sp)
    1d8c:	0131                	addi	sp,sp,12
    1d8e:	8082                	ret

00001d90 <USART_GetFlagStatus>:
    1d90:	1141                	addi	sp,sp,-16
    1d92:	c622                	sw	s0,12(sp)
    1d94:	0800                	addi	s0,sp,16
    1d96:	fea42a23          	sw	a0,-12(s0)
    1d9a:	87ae                	mv	a5,a1
    1d9c:	fef41923          	sh	a5,-14(s0)
    1da0:	fe042c23          	sw	zero,-8(s0)
    1da4:	ff442783          	lw	a5,-12(s0)
    1da8:	239e                	lhu	a5,0(a5)
    1daa:	01079713          	slli	a4,a5,0x10
    1dae:	8341                	srli	a4,a4,0x10
    1db0:	ff245783          	lhu	a5,-14(s0)
    1db4:	8ff9                	and	a5,a5,a4
    1db6:	07c2                	slli	a5,a5,0x10
    1db8:	83c1                	srli	a5,a5,0x10
    1dba:	c789                	beqz	a5,1dc4 <USART_GetFlagStatus+0x34>
    1dbc:	4785                	li	a5,1
    1dbe:	fef42c23          	sw	a5,-8(s0)
    1dc2:	a019                	j	1dc8 <USART_GetFlagStatus+0x38>
    1dc4:	fe042c23          	sw	zero,-8(s0)
    1dc8:	ff842783          	lw	a5,-8(s0)
    1dcc:	853e                	mv	a0,a5
    1dce:	4432                	lw	s0,12(sp)
    1dd0:	0141                	addi	sp,sp,16
    1dd2:	8082                	ret

00001dd4 <delay>:
    1dd4:	1111                	addi	sp,sp,-28
    1dd6:	cc22                	sw	s0,24(sp)
    1dd8:	0860                	addi	s0,sp,28
    1dda:	fea42623          	sw	a0,-20(s0)
    1dde:	ffc40793          	addi	a5,s0,-4
    1de2:	17d1                	addi	a5,a5,-12
    1de4:	079d                	addi	a5,a5,7
    1de6:	838d                	srli	a5,a5,0x3
    1de8:	00379593          	slli	a1,a5,0x3
    1dec:	200007b7          	lui	a5,0x20000
    1df0:	0587a783          	lw	a5,88(a5) # 20000058 <_edata>
    1df4:	c19c                	sw	a5,0(a1)
    1df6:	0005a223          	sw	zero,4(a1)
    1dfa:	0001                	nop
    1dfc:	200007b7          	lui	a5,0x20000
    1e00:	0587a783          	lw	a5,88(a5) # 20000058 <_edata>
    1e04:	fef42223          	sw	a5,-28(s0)
    1e08:	fe042423          	sw	zero,-24(s0)
    1e0c:	fec42783          	lw	a5,-20(s0)
    1e10:	863e                	mv	a2,a5
    1e12:	87fd                	srai	a5,a5,0x1f
    1e14:	86be                	mv	a3,a5
    1e16:	0005a303          	lw	t1,0(a1)
    1e1a:	0045a383          	lw	t2,4(a1)
    1e1e:	00660733          	add	a4,a2,t1
    1e22:	853a                	mv	a0,a4
    1e24:	00c53533          	sltu	a0,a0,a2
    1e28:	007687b3          	add	a5,a3,t2
    1e2c:	953e                	add	a0,a0,a5
    1e2e:	87aa                	mv	a5,a0
    1e30:	fe842303          	lw	t1,-24(s0)
    1e34:	853e                	mv	a0,a5
    1e36:	00656d63          	bltu	a0,t1,1e50 <delay+0x7c>
    1e3a:	fe842303          	lw	t1,-24(s0)
    1e3e:	853e                	mv	a0,a5
    1e40:	faa31ee3          	bne	t1,a0,1dfc <delay+0x28>
    1e44:	fe442503          	lw	a0,-28(s0)
    1e48:	87ba                	mv	a5,a4
    1e4a:	00a7e363          	bltu	a5,a0,1e50 <delay+0x7c>
    1e4e:	b77d                	j	1dfc <delay+0x28>
    1e50:	0001                	nop
    1e52:	4462                	lw	s0,24(sp)
    1e54:	0171                	addi	sp,sp,28
    1e56:	8082                	ret

00001e58 <Delay_Init>:
    1e58:	1151                	addi	sp,sp,-12
    1e5a:	c406                	sw	ra,8(sp)
    1e5c:	c222                	sw	s0,4(sp)
    1e5e:	0060                	addi	s0,sp,12
    1e60:	200007b7          	lui	a5,0x20000
    1e64:	01c7a703          	lw	a4,28(a5) # 2000001c <_highcode_vma_end>
    1e68:	007a17b7          	lui	a5,0x7a1
    1e6c:	20078593          	addi	a1,a5,512 # 7a1200 <_data_lma+0x79eb00>
    1e70:	853a                	mv	a0,a4
    1e72:	a6afe0ef          	jal	ra,dc <__udivsi3>
    1e76:	87aa                	mv	a5,a0
    1e78:	0ff7f713          	andi	a4,a5,255
    1e7c:	82e18223          	sb	a4,-2012(gp) # 2000007c <p_us>
    1e80:	8241c783          	lbu	a5,-2012(gp) # 2000007c <p_us>
    1e84:	07c2                	slli	a5,a5,0x10
    1e86:	83c1                	srli	a5,a5,0x10
    1e88:	873e                	mv	a4,a5
    1e8a:	0716                	slli	a4,a4,0x5
    1e8c:	8f1d                	sub	a4,a4,a5
    1e8e:	070a                	slli	a4,a4,0x2
    1e90:	97ba                	add	a5,a5,a4
    1e92:	078e                	slli	a5,a5,0x3
    1e94:	01079713          	slli	a4,a5,0x10
    1e98:	8341                	srli	a4,a4,0x10
    1e9a:	82e19323          	sh	a4,-2010(gp) # 2000007e <p_ms>
    1e9e:	0001                	nop
    1ea0:	40a2                	lw	ra,8(sp)
    1ea2:	4412                	lw	s0,4(sp)
    1ea4:	0131                	addi	sp,sp,12
    1ea6:	8082                	ret

00001ea8 <Delay_Ms>:
    1ea8:	1131                	addi	sp,sp,-20
    1eaa:	c806                	sw	ra,16(sp)
    1eac:	c622                	sw	s0,12(sp)
    1eae:	0840                	addi	s0,sp,20
    1eb0:	fea42623          	sw	a0,-20(s0)
    1eb4:	e000f7b7          	lui	a5,0xe000f
    1eb8:	43d8                	lw	a4,4(a5)
    1eba:	e000f7b7          	lui	a5,0xe000f
    1ebe:	9b79                	andi	a4,a4,-2
    1ec0:	c3d8                	sw	a4,4(a5)
    1ec2:	8261d783          	lhu	a5,-2010(gp) # 2000007e <p_ms>
    1ec6:	85be                	mv	a1,a5
    1ec8:	fec42503          	lw	a0,-20(s0)
    1ecc:	9f0fe0ef          	jal	ra,bc <__mulsi3>
    1ed0:	87aa                	mv	a5,a0
    1ed2:	fef42823          	sw	a5,-16(s0)
    1ed6:	e000f7b7          	lui	a5,0xe000f
    1eda:	ff042703          	lw	a4,-16(s0)
    1ede:	cb98                	sw	a4,16(a5)
    1ee0:	e000f7b7          	lui	a5,0xe000f
    1ee4:	0007a423          	sw	zero,8(a5) # e000f008 <__global_pointer$+0xc000e7b0>
    1ee8:	e000f7b7          	lui	a5,0xe000f
    1eec:	4398                	lw	a4,0(a5)
    1eee:	e000f7b7          	lui	a5,0xe000f
    1ef2:	00176713          	ori	a4,a4,1
    1ef6:	c398                	sw	a4,0(a5)
    1ef8:	0001                	nop
    1efa:	e000f7b7          	lui	a5,0xe000f
    1efe:	43dc                	lw	a5,4(a5)
    1f00:	0017f713          	andi	a4,a5,1
    1f04:	4785                	li	a5,1
    1f06:	fef71ae3          	bne	a4,a5,1efa <Delay_Ms+0x52>
    1f0a:	e000f7b7          	lui	a5,0xe000f
    1f0e:	4398                	lw	a4,0(a5)
    1f10:	e000f7b7          	lui	a5,0xe000f
    1f14:	9b79                	andi	a4,a4,-2
    1f16:	c398                	sw	a4,0(a5)
    1f18:	0001                	nop
    1f1a:	40c2                	lw	ra,16(sp)
    1f1c:	4432                	lw	s0,12(sp)
    1f1e:	0151                	addi	sp,sp,20
    1f20:	8082                	ret

00001f22 <USART_Printf_Init>:
    1f22:	fd410113          	addi	sp,sp,-44
    1f26:	d406                	sw	ra,40(sp)
    1f28:	d222                	sw	s0,36(sp)
    1f2a:	1060                	addi	s0,sp,44
    1f2c:	fca42a23          	sw	a0,-44(s0)
    1f30:	4585                	li	a1,1
    1f32:	6791                	lui	a5,0x4
    1f34:	02178513          	addi	a0,a5,33 # 4021 <_data_lma+0x1921>
    1f38:	3e09                	jal	1a4a <RCC_APB2PeriphClockCmd>
    1f3a:	4585                	li	a1,1
    1f3c:	80200537          	lui	a0,0x80200
    1f40:	b76ff0ef          	jal	ra,12b6 <GPIO_PinRemapConfig>
    1f44:	04000793          	li	a5,64
    1f48:	fef41423          	sh	a5,-24(s0)
    1f4c:	478d                	li	a5,3
    1f4e:	fef42623          	sw	a5,-20(s0)
    1f52:	47e1                	li	a5,24
    1f54:	fef42823          	sw	a5,-16(s0)
    1f58:	fe840793          	addi	a5,s0,-24
    1f5c:	85be                	mv	a1,a5
    1f5e:	400117b7          	lui	a5,0x40011
    1f62:	40078513          	addi	a0,a5,1024 # 40011400 <__global_pointer$+0x20010ba8>
    1f66:	9a2ff0ef          	jal	ra,1108 <GPIO_Init>
    1f6a:	fd442783          	lw	a5,-44(s0)
    1f6e:	fcf42c23          	sw	a5,-40(s0)
    1f72:	fc041e23          	sh	zero,-36(s0)
    1f76:	fc041f23          	sh	zero,-34(s0)
    1f7a:	fe041023          	sh	zero,-32(s0)
    1f7e:	fe041223          	sh	zero,-28(s0)
    1f82:	47a1                	li	a5,8
    1f84:	fef41123          	sh	a5,-30(s0)
    1f88:	fd840793          	addi	a5,s0,-40
    1f8c:	85be                	mv	a1,a5
    1f8e:	400147b7          	lui	a5,0x40014
    1f92:	80078513          	addi	a0,a5,-2048 # 40013800 <__global_pointer$+0x20012fa8>
    1f96:	3681                	jal	1ad6 <USART_Init>
    1f98:	4585                	li	a1,1
    1f9a:	400147b7          	lui	a5,0x40014
    1f9e:	80078513          	addi	a0,a5,-2048 # 40013800 <__global_pointer$+0x20012fa8>
    1fa2:	33ad                	jal	1d0c <USART_Cmd>
    1fa4:	0001                	nop
    1fa6:	50a2                	lw	ra,40(sp)
    1fa8:	5412                	lw	s0,36(sp)
    1faa:	02c10113          	addi	sp,sp,44
    1fae:	8082                	ret

00001fb0 <_write>:
    1fb0:	1101                	addi	sp,sp,-32
    1fb2:	ce06                	sw	ra,28(sp)
    1fb4:	cc22                	sw	s0,24(sp)
    1fb6:	1000                	addi	s0,sp,32
    1fb8:	fea42423          	sw	a0,-24(s0)
    1fbc:	feb42223          	sw	a1,-28(s0)
    1fc0:	fec42023          	sw	a2,-32(s0)
    1fc4:	fe042823          	sw	zero,-16(s0)
    1fc8:	fe042783          	lw	a5,-32(s0)
    1fcc:	fef42623          	sw	a5,-20(s0)
    1fd0:	fe042823          	sw	zero,-16(s0)
    1fd4:	a081                	j	2014 <_write+0x64>
    1fd6:	0001                	nop
    1fd8:	04000593          	li	a1,64
    1fdc:	400147b7          	lui	a5,0x40014
    1fe0:	80078513          	addi	a0,a5,-2048 # 40013800 <__global_pointer$+0x20012fa8>
    1fe4:	3375                	jal	1d90 <USART_GetFlagStatus>
    1fe6:	87aa                	mv	a5,a0
    1fe8:	dbe5                	beqz	a5,1fd8 <_write+0x28>
    1fea:	fe442783          	lw	a5,-28(s0)
    1fee:	00178713          	addi	a4,a5,1
    1ff2:	fee42223          	sw	a4,-28(s0)
    1ff6:	00078783          	lb	a5,0(a5)
    1ffa:	07c2                	slli	a5,a5,0x10
    1ffc:	83c1                	srli	a5,a5,0x10
    1ffe:	85be                	mv	a1,a5
    2000:	400147b7          	lui	a5,0x40014
    2004:	80078513          	addi	a0,a5,-2048 # 40013800 <__global_pointer$+0x20012fa8>
    2008:	3bb1                	jal	1d64 <USART_SendData>
    200a:	ff042783          	lw	a5,-16(s0)
    200e:	0785                	addi	a5,a5,1
    2010:	fef42823          	sw	a5,-16(s0)
    2014:	ff042703          	lw	a4,-16(s0)
    2018:	fe042783          	lw	a5,-32(s0)
    201c:	faf74de3          	blt	a4,a5,1fd6 <_write+0x26>
    2020:	fec42783          	lw	a5,-20(s0)
    2024:	853e                	mv	a0,a5
    2026:	40f2                	lw	ra,28(sp)
    2028:	4462                	lw	s0,24(sp)
    202a:	6105                	addi	sp,sp,32
    202c:	8082                	ret

0000202e <printchar>:
    202e:	1141                	addi	sp,sp,-16
    2030:	c606                	sw	ra,12(sp)
    2032:	c02e                	sw	a1,0(sp)
    2034:	cd0d                	beqz	a0,206e <printchar+0x40>
    2036:	4118                	lw	a4,0(a0)
    2038:	87aa                	mv	a5,a0
    203a:	c305                	beqz	a4,205a <printchar+0x2c>
    203c:	4158                	lw	a4,4(a0)
    203e:	557d                	li	a0,-1
    2040:	cb11                	beqz	a4,2054 <printchar+0x26>
    2042:	4685                	li	a3,1
    2044:	00d71b63          	bne	a4,a3,205a <printchar+0x2c>
    2048:	4798                	lw	a4,8(a5)
    204a:	00070023          	sb	zero,0(a4)
    204e:	0007a223          	sw	zero,4(a5)
    2052:	4505                	li	a0,1
    2054:	40b2                	lw	ra,12(sp)
    2056:	0141                	addi	sp,sp,16
    2058:	8082                	ret
    205a:	4798                	lw	a4,8(a5)
    205c:	4682                	lw	a3,0(sp)
    205e:	a314                	sb	a3,0(a4)
    2060:	4798                	lw	a4,8(a5)
    2062:	0705                	addi	a4,a4,1
    2064:	c798                	sw	a4,8(a5)
    2066:	43d8                	lw	a4,4(a5)
    2068:	177d                	addi	a4,a4,-1
    206a:	c3d8                	sw	a4,4(a5)
    206c:	b7dd                	j	2052 <printchar+0x24>
    206e:	4605                	li	a2,1
    2070:	858a                	mv	a1,sp
    2072:	3f3d                	jal	1fb0 <_write>
    2074:	bff9                	j	2052 <printchar+0x24>

00002076 <prints>:
    2076:	1101                	addi	sp,sp,-32
    2078:	cc22                	sw	s0,24(sp)
    207a:	c22e                	sw	a1,4(sp)
    207c:	ce06                	sw	ra,28(sp)
    207e:	ca26                	sw	s1,20(sp)
    2080:	842a                	mv	s0,a0
    2082:	4781                	li	a5,0
    2084:	02000593          	li	a1,32
    2088:	02064563          	bltz	a2,20b2 <prints+0x3c>
    208c:	4592                	lw	a1,4(sp)
    208e:	95be                	add	a1,a1,a5
    2090:	00058583          	lb	a1,0(a1)
    2094:	e58d                	bnez	a1,20be <prints+0x48>
    2096:	02c7d863          	bge	a5,a2,20c6 <prints+0x50>
    209a:	02e7d463          	bge	a5,a4,20c2 <prints+0x4c>
    209e:	8e19                	sub	a2,a2,a4
    20a0:	02000513          	li	a0,32
    20a4:	0026f593          	andi	a1,a3,2
    20a8:	c02a                	sw	a0,0(sp)
    20aa:	c589                	beqz	a1,20b4 <prints+0x3e>
    20ac:	e701                	bnez	a4,20b4 <prints+0x3e>
    20ae:	03000593          	li	a1,48
    20b2:	c02e                	sw	a1,0(sp)
    20b4:	8a85                	andi	a3,a3,1
    20b6:	4481                	li	s1,0
    20b8:	ea95                	bnez	a3,20ec <prints+0x76>
    20ba:	84b2                	mv	s1,a2
    20bc:	a00d                	j	20de <prints+0x68>
    20be:	0785                	addi	a5,a5,1
    20c0:	b7f1                	j	208c <prints+0x16>
    20c2:	8e1d                	sub	a2,a2,a5
    20c4:	bff1                	j	20a0 <prints+0x2a>
    20c6:	4601                	li	a2,0
    20c8:	bfe1                	j	20a0 <prints+0x2a>
    20ca:	4582                	lw	a1,0(sp)
    20cc:	8522                	mv	a0,s0
    20ce:	c83a                	sw	a4,16(sp)
    20d0:	c632                	sw	a2,12(sp)
    20d2:	c43e                	sw	a5,8(sp)
    20d4:	3fa9                	jal	202e <printchar>
    20d6:	47a2                	lw	a5,8(sp)
    20d8:	4632                	lw	a2,12(sp)
    20da:	4742                	lw	a4,16(sp)
    20dc:	14fd                	addi	s1,s1,-1
    20de:	fe9046e3          	bgtz	s1,20ca <prints+0x54>
    20e2:	84b2                	mv	s1,a2
    20e4:	00065363          	bgez	a2,20ea <prints+0x74>
    20e8:	4481                	li	s1,0
    20ea:	8e05                	sub	a2,a2,s1
    20ec:	02e7c763          	blt	a5,a4,211a <prints+0xa4>
    20f0:	87a6                	mv	a5,s1
    20f2:	4692                	lw	a3,4(sp)
    20f4:	40978733          	sub	a4,a5,s1
    20f8:	9736                	add	a4,a4,a3
    20fa:	00070583          	lb	a1,0(a4)
    20fe:	ed95                	bnez	a1,213a <prints+0xc4>
    2100:	84b2                	mv	s1,a2
    2102:	04904463          	bgtz	s1,214a <prints+0xd4>
    2106:	00065363          	bgez	a2,210c <prints+0x96>
    210a:	4601                	li	a2,0
    210c:	40f2                	lw	ra,28(sp)
    210e:	4462                	lw	s0,24(sp)
    2110:	44d2                	lw	s1,20(sp)
    2112:	00f60533          	add	a0,a2,a5
    2116:	6105                	addi	sp,sp,32
    2118:	8082                	ret
    211a:	8f1d                	sub	a4,a4,a5
    211c:	87ba                	mv	a5,a4
    211e:	03000593          	li	a1,48
    2122:	8522                	mv	a0,s0
    2124:	c832                	sw	a2,16(sp)
    2126:	c63e                	sw	a5,12(sp)
    2128:	c43a                	sw	a4,8(sp)
    212a:	3711                	jal	202e <printchar>
    212c:	47b2                	lw	a5,12(sp)
    212e:	4722                	lw	a4,8(sp)
    2130:	4642                	lw	a2,16(sp)
    2132:	17fd                	addi	a5,a5,-1
    2134:	f7ed                	bnez	a5,211e <prints+0xa8>
    2136:	94ba                	add	s1,s1,a4
    2138:	bf65                	j	20f0 <prints+0x7a>
    213a:	8522                	mv	a0,s0
    213c:	c632                	sw	a2,12(sp)
    213e:	c43e                	sw	a5,8(sp)
    2140:	35fd                	jal	202e <printchar>
    2142:	47a2                	lw	a5,8(sp)
    2144:	4632                	lw	a2,12(sp)
    2146:	0785                	addi	a5,a5,1
    2148:	b76d                	j	20f2 <prints+0x7c>
    214a:	4582                	lw	a1,0(sp)
    214c:	8522                	mv	a0,s0
    214e:	c432                	sw	a2,8(sp)
    2150:	c23e                	sw	a5,4(sp)
    2152:	3df1                	jal	202e <printchar>
    2154:	14fd                	addi	s1,s1,-1
    2156:	4622                	lw	a2,8(sp)
    2158:	4792                	lw	a5,4(sp)
    215a:	b765                	j	2102 <prints+0x8c>

0000215c <printInt>:
    215c:	7139                	addi	sp,sp,-64
    215e:	de06                	sw	ra,60(sp)
    2160:	dc22                	sw	s0,56(sp)
    2162:	da26                	sw	s1,52(sp)
    2164:	c23e                	sw	a5,4(sp)
    2166:	8332                	mv	t1,a2
    2168:	863a                	mv	a2,a4
    216a:	ed89                	bnez	a1,2184 <printInt+0x28>
    216c:	4692                	lw	a3,4(sp)
    216e:	03000793          	li	a5,48
    2172:	4701                	li	a4,0
    2174:	086c                	addi	a1,sp,28
    2176:	86fc                	sh	a5,28(sp)
    2178:	3dfd                	jal	2076 <prints>
    217a:	50f2                	lw	ra,60(sp)
    217c:	5462                	lw	s0,56(sp)
    217e:	54d2                	lw	s1,52(sp)
    2180:	6121                	addi	sp,sp,64
    2182:	8082                	ret
    2184:	84aa                	mv	s1,a0
    2186:	8436                	mv	s0,a3
    2188:	87ae                	mv	a5,a1
    218a:	ca91                	beqz	a3,219e <printInt+0x42>
    218c:	4729                	li	a4,10
    218e:	4401                	li	s0,0
    2190:	00e31763          	bne	t1,a4,219e <printInt+0x42>
    2194:	0005d563          	bgez	a1,219e <printInt+0x42>
    2198:	40b007b3          	neg	a5,a1
    219c:	4405                	li	s0,1
    219e:	4686                	lw	a3,64(sp)
    21a0:	020109a3          	sb	zero,51(sp)
    21a4:	03310713          	addi	a4,sp,51
    21a8:	fc668693          	addi	a3,a3,-58 # e000dfc6 <__global_pointer$+0xc000d76e>
    21ac:	c436                	sw	a3,8(sp)
    21ae:	859a                	mv	a1,t1
    21b0:	853e                	mv	a0,a5
    21b2:	ca32                	sw	a2,20(sp)
    21b4:	c83a                	sw	a4,16(sp)
    21b6:	c61a                	sw	t1,12(sp)
    21b8:	c03e                	sw	a5,0(sp)
    21ba:	f4ffd0ef          	jal	ra,108 <__umodsi3>
    21be:	46a5                	li	a3,9
    21c0:	4782                	lw	a5,0(sp)
    21c2:	4332                	lw	t1,12(sp)
    21c4:	4742                	lw	a4,16(sp)
    21c6:	4652                	lw	a2,20(sp)
    21c8:	00a6d463          	bge	a3,a0,21d0 <printInt+0x74>
    21cc:	46a2                	lw	a3,8(sp)
    21ce:	9536                	add	a0,a0,a3
    21d0:	03050513          	addi	a0,a0,48 # 80200030 <__global_pointer$+0x601ff7d8>
    21d4:	fff70693          	addi	a3,a4,-1
    21d8:	fea70fa3          	sb	a0,-1(a4)
    21dc:	859a                	mv	a1,t1
    21de:	853e                	mv	a0,a5
    21e0:	cc32                	sw	a2,24(sp)
    21e2:	ca3a                	sw	a4,20(sp)
    21e4:	c81a                	sw	t1,16(sp)
    21e6:	c63e                	sw	a5,12(sp)
    21e8:	c036                	sw	a3,0(sp)
    21ea:	ef3fd0ef          	jal	ra,dc <__udivsi3>
    21ee:	47b2                	lw	a5,12(sp)
    21f0:	4342                	lw	t1,16(sp)
    21f2:	4752                	lw	a4,20(sp)
    21f4:	4662                	lw	a2,24(sp)
    21f6:	0467f963          	bgeu	a5,t1,2248 <printInt+0xec>
    21fa:	cc01                	beqz	s0,2212 <printInt+0xb6>
    21fc:	ca29                	beqz	a2,224e <printInt+0xf2>
    21fe:	4792                	lw	a5,4(sp)
    2200:	8b89                	andi	a5,a5,2
    2202:	c7b1                	beqz	a5,224e <printInt+0xf2>
    2204:	02d00593          	li	a1,45
    2208:	8526                	mv	a0,s1
    220a:	c432                	sw	a2,8(sp)
    220c:	350d                	jal	202e <printchar>
    220e:	4622                	lw	a2,8(sp)
    2210:	167d                	addi	a2,a2,-1
    2212:	4792                	lw	a5,4(sp)
    2214:	8b91                	andi	a5,a5,4
    2216:	c395                	beqz	a5,223a <printInt+0xde>
    2218:	4706                	lw	a4,64(sp)
    221a:	06100793          	li	a5,97
    221e:	c432                	sw	a2,8(sp)
    2220:	03000593          	li	a1,48
    2224:	8526                	mv	a0,s1
    2226:	02f71e63          	bne	a4,a5,2262 <printInt+0x106>
    222a:	3511                	jal	202e <printchar>
    222c:	07800593          	li	a1,120
    2230:	8526                	mv	a0,s1
    2232:	3bf5                	jal	202e <printchar>
    2234:	4622                	lw	a2,8(sp)
    2236:	0409                	addi	s0,s0,2
    2238:	1679                	addi	a2,a2,-2
    223a:	4716                	lw	a4,68(sp)
    223c:	4692                	lw	a3,4(sp)
    223e:	4582                	lw	a1,0(sp)
    2240:	8526                	mv	a0,s1
    2242:	3d15                	jal	2076 <prints>
    2244:	9522                	add	a0,a0,s0
    2246:	bf15                	j	217a <printInt+0x1e>
    2248:	87aa                	mv	a5,a0
    224a:	4702                	lw	a4,0(sp)
    224c:	b78d                	j	21ae <printInt+0x52>
    224e:	4682                	lw	a3,0(sp)
    2250:	02d00793          	li	a5,45
    2254:	4401                	li	s0,0
    2256:	fef68fa3          	sb	a5,-1(a3)
    225a:	ffe70793          	addi	a5,a4,-2
    225e:	c03e                	sw	a5,0(sp)
    2260:	bf4d                	j	2212 <printInt+0xb6>
    2262:	33f1                	jal	202e <printchar>
    2264:	05800593          	li	a1,88
    2268:	b7e1                	j	2230 <printInt+0xd4>

0000226a <printLongLongInt>:
    226a:	4501                	li	a0,0
    226c:	8082                	ret

0000226e <printDouble>:
    226e:	4501                	li	a0,0
    2270:	8082                	ret

00002272 <print>:
    2272:	fd810113          	addi	sp,sp,-40
    2276:	d022                	sw	s0,32(sp)
    2278:	ce26                	sw	s1,28(sp)
    227a:	d206                	sw	ra,36(sp)
    227c:	c42a                	sw	a0,8(sp)
    227e:	82ae                	mv	t0,a1
    2280:	8432                	mv	s0,a2
    2282:	c602                	sw	zero,12(sp)
    2284:	4481                	li	s1,0
    2286:	00028583          	lb	a1,0(t0)
    228a:	ed89                	bnez	a1,22a4 <print+0x32>
    228c:	47a2                	lw	a5,8(sp)
    228e:	c781                	beqz	a5,2296 <print+0x24>
    2290:	4581                	li	a1,0
    2292:	853e                	mv	a0,a5
    2294:	3b69                	jal	202e <printchar>
    2296:	5092                	lw	ra,36(sp)
    2298:	5402                	lw	s0,32(sp)
    229a:	8526                	mv	a0,s1
    229c:	44f2                	lw	s1,28(sp)
    229e:	02810113          	addi	sp,sp,40
    22a2:	8082                	ret
    22a4:	02500793          	li	a5,37
    22a8:	00f58863          	beq	a1,a5,22b8 <print+0x46>
    22ac:	4522                	lw	a0,8(sp)
    22ae:	c816                	sw	t0,16(sp)
    22b0:	0485                	addi	s1,s1,1
    22b2:	3bb5                	jal	202e <printchar>
    22b4:	42c2                	lw	t0,16(sp)
    22b6:	a839                	j	22d4 <print+0x62>
    22b8:	00128783          	lb	a5,1(t0)
    22bc:	00128713          	addi	a4,t0,1
    22c0:	00b79c63          	bne	a5,a1,22d8 <print+0x66>
    22c4:	4522                	lw	a0,8(sp)
    22c6:	02500593          	li	a1,37
    22ca:	c83a                	sw	a4,16(sp)
    22cc:	338d                	jal	202e <printchar>
    22ce:	4742                	lw	a4,16(sp)
    22d0:	0485                	addi	s1,s1,1
    22d2:	82ba                	mv	t0,a4
    22d4:	0285                	addi	t0,t0,1
    22d6:	bf45                	j	2286 <print+0x14>
    22d8:	dbd5                	beqz	a5,228c <print+0x1a>
    22da:	02b00693          	li	a3,43
    22de:	04d78963          	beq	a5,a3,2330 <print+0xbe>
    22e2:	00f6c863          	blt	a3,a5,22f2 <print+0x80>
    22e6:	02300693          	li	a3,35
    22ea:	04d78663          	beq	a5,a3,2336 <print+0xc4>
    22ee:	4781                	li	a5,0
    22f0:	a005                	j	2310 <print+0x9e>
    22f2:	02d00693          	li	a3,45
    22f6:	00d78a63          	beq	a5,a3,230a <print+0x98>
    22fa:	03000693          	li	a3,48
    22fe:	fed798e3          	bne	a5,a3,22ee <print+0x7c>
    2302:	00228713          	addi	a4,t0,2
    2306:	4789                	li	a5,2
    2308:	a021                	j	2310 <print+0x9e>
    230a:	00228713          	addi	a4,t0,2
    230e:	4785                	li	a5,1
    2310:	00070683          	lb	a3,0(a4)
    2314:	02b00613          	li	a2,43
    2318:	04c68363          	beq	a3,a2,235e <print+0xec>
    231c:	02d64163          	blt	a2,a3,233e <print+0xcc>
    2320:	02300613          	li	a2,35
    2324:	02c68b63          	beq	a3,a2,235a <print+0xe8>
    2328:	82ba                	mv	t0,a4
    232a:	4501                	li	a0,0
    232c:	46a5                	li	a3,9
    232e:	a081                	j	236e <print+0xfc>
    2330:	00228713          	addi	a4,t0,2
    2334:	bf6d                	j	22ee <print+0x7c>
    2336:	00228713          	addi	a4,t0,2
    233a:	4791                	li	a5,4
    233c:	bfd1                	j	2310 <print+0x9e>
    233e:	02d00613          	li	a2,45
    2342:	00c68963          	beq	a3,a2,2354 <print+0xe2>
    2346:	03000613          	li	a2,48
    234a:	fcc69fe3          	bne	a3,a2,2328 <print+0xb6>
    234e:	0027e793          	ori	a5,a5,2
    2352:	a031                	j	235e <print+0xec>
    2354:	0705                	addi	a4,a4,1
    2356:	4785                	li	a5,1
    2358:	bfc1                	j	2328 <print+0xb6>
    235a:	0047e793          	ori	a5,a5,4
    235e:	0705                	addi	a4,a4,1
    2360:	b7e1                	j	2328 <print+0xb6>
    2362:	00251613          	slli	a2,a0,0x2
    2366:	9532                	add	a0,a0,a2
    2368:	0506                	slli	a0,a0,0x1
    236a:	953a                	add	a0,a0,a4
    236c:	0285                	addi	t0,t0,1
    236e:	00028603          	lb	a2,0(t0)
    2372:	fd060713          	addi	a4,a2,-48
    2376:	0ff77593          	andi	a1,a4,255
    237a:	feb6f4e3          	bgeu	a3,a1,2362 <print+0xf0>
    237e:	02e00713          	li	a4,46
    2382:	4699                	li	a3,6
    2384:	00e61e63          	bne	a2,a4,23a0 <print+0x12e>
    2388:	0285                	addi	t0,t0,1
    238a:	4681                	li	a3,0
    238c:	45a5                	li	a1,9
    238e:	00028603          	lb	a2,0(t0)
    2392:	fd060613          	addi	a2,a2,-48
    2396:	0ff67713          	andi	a4,a2,255
    239a:	02e5f563          	bgeu	a1,a4,23c4 <print+0x152>
    239e:	c636                	sw	a3,12(sp)
    23a0:	00028703          	lb	a4,0(t0)
    23a4:	06a00613          	li	a2,106
    23a8:	0ac70d63          	beq	a4,a2,2462 <print+0x1f0>
    23ac:	02e64363          	blt	a2,a4,23d2 <print+0x160>
    23b0:	04c00613          	li	a2,76
    23b4:	0ac70763          	beq	a4,a2,2462 <print+0x1f0>
    23b8:	06800613          	li	a2,104
    23bc:	08c70c63          	beq	a4,a2,2454 <print+0x1e2>
    23c0:	4581                	li	a1,0
    23c2:	a82d                	j	23fc <print+0x18a>
    23c4:	00269713          	slli	a4,a3,0x2
    23c8:	96ba                	add	a3,a3,a4
    23ca:	0686                	slli	a3,a3,0x1
    23cc:	96b2                	add	a3,a3,a2
    23ce:	0285                	addi	t0,t0,1
    23d0:	bf7d                	j	238e <print+0x11c>
    23d2:	07400613          	li	a2,116
    23d6:	08c70663          	beq	a4,a2,2462 <print+0x1f0>
    23da:	07a00613          	li	a2,122
    23de:	08c70263          	beq	a4,a2,2462 <print+0x1f0>
    23e2:	06c00613          	li	a2,108
    23e6:	4581                	li	a1,0
    23e8:	00c71a63          	bne	a4,a2,23fc <print+0x18a>
    23ec:	00128603          	lb	a2,1(t0)
    23f0:	458d                	li	a1,3
    23f2:	00e61463          	bne	a2,a4,23fa <print+0x188>
    23f6:	0285                	addi	t0,t0,1
    23f8:	4591                	li	a1,4
    23fa:	0285                	addi	t0,t0,1
    23fc:	00028603          	lb	a2,0(t0)
    2400:	06000393          	li	t2,96
    2404:	06100713          	li	a4,97
    2408:	00c3c463          	blt	t2,a2,2410 <print+0x19e>
    240c:	04100713          	li	a4,65
    2410:	06700393          	li	t2,103
    2414:	06c3c463          	blt	t2,a2,247c <print+0x20a>
    2418:	06500393          	li	t2,101
    241c:	18765363          	bge	a2,t2,25a2 <print+0x330>
    2420:	04700393          	li	t2,71
    2424:	04c3c163          	blt	t2,a2,2466 <print+0x1f4>
    2428:	04500593          	li	a1,69
    242c:	16b65b63          	bge	a2,a1,25a2 <print+0x330>
    2430:	04300713          	li	a4,67
    2434:	eae610e3          	bne	a2,a4,22d4 <print+0x62>
    2438:	4018                	lw	a4,0(s0)
    243a:	00440393          	addi	t2,s0,4
    243e:	ca16                	sw	t0,20(sp)
    2440:	00e10c23          	sb	a4,24(sp)
    2444:	c81e                	sw	t2,16(sp)
    2446:	00010ca3          	sb	zero,25(sp)
    244a:	4701                	li	a4,0
    244c:	86be                	mv	a3,a5
    244e:	862a                	mv	a2,a0
    2450:	082c                	addi	a1,sp,24
    2452:	a849                	j	24e4 <print+0x272>
    2454:	00128603          	lb	a2,1(t0)
    2458:	4581                	li	a1,0
    245a:	fae611e3          	bne	a2,a4,23fc <print+0x18a>
    245e:	0289                	addi	t0,t0,2
    2460:	bf71                	j	23fc <print+0x18a>
    2462:	0285                	addi	t0,t0,1
    2464:	bfb1                	j	23c0 <print+0x14e>
    2466:	06300693          	li	a3,99
    246a:	fcd607e3          	beq	a2,a3,2438 <print+0x1c6>
    246e:	06c6ce63          	blt	a3,a2,24ea <print+0x278>
    2472:	05800693          	li	a3,88
    2476:	02d60363          	beq	a2,a3,249c <print+0x22a>
    247a:	bda9                	j	22d4 <print+0x62>
    247c:	07300693          	li	a3,115
    2480:	04d60463          	beq	a2,a3,24c8 <print+0x256>
    2484:	02c6cb63          	blt	a3,a2,24ba <print+0x248>
    2488:	06f00693          	li	a3,111
    248c:	0ed60263          	beq	a2,a3,2570 <print+0x2fe>
    2490:	07000693          	li	a3,112
    2494:	0047e793          	ori	a5,a5,4
    2498:	e2d61ee3          	bne	a2,a3,22d4 <print+0x62>
    249c:	4691                	li	a3,4
    249e:	0ad59f63          	bne	a1,a3,255c <print+0x2ea>
    24a2:	00840393          	addi	t2,s0,8
    24a6:	400c                	lw	a1,0(s0)
    24a8:	4050                	lw	a2,4(s0)
    24aa:	ca16                	sw	t0,20(sp)
    24ac:	c23a                	sw	a4,4(sp)
    24ae:	c03e                	sw	a5,0(sp)
    24b0:	c81e                	sw	t2,16(sp)
    24b2:	87aa                	mv	a5,a0
    24b4:	4701                	li	a4,0
    24b6:	46c1                	li	a3,16
    24b8:	a0b9                	j	2506 <print+0x294>
    24ba:	07500693          	li	a3,117
    24be:	06d60863          	beq	a2,a3,252e <print+0x2bc>
    24c2:	07800693          	li	a3,120
    24c6:	bf45                	j	2476 <print+0x204>
    24c8:	4018                	lw	a4,0(s0)
    24ca:	000026b7          	lui	a3,0x2
    24ce:	00440393          	addi	t2,s0,4
    24d2:	6f468593          	addi	a1,a3,1780 # 26f4 <puts+0x10e>
    24d6:	c311                	beqz	a4,24da <print+0x268>
    24d8:	85ba                	mv	a1,a4
    24da:	4732                	lw	a4,12(sp)
    24dc:	ca16                	sw	t0,20(sp)
    24de:	c81e                	sw	t2,16(sp)
    24e0:	86be                	mv	a3,a5
    24e2:	862a                	mv	a2,a0
    24e4:	4522                	lw	a0,8(sp)
    24e6:	3e41                	jal	2076 <prints>
    24e8:	a00d                	j	250a <print+0x298>
    24ea:	4691                	li	a3,4
    24ec:	02d59463          	bne	a1,a3,2514 <print+0x2a2>
    24f0:	00840393          	addi	t2,s0,8
    24f4:	400c                	lw	a1,0(s0)
    24f6:	4050                	lw	a2,4(s0)
    24f8:	ca16                	sw	t0,20(sp)
    24fa:	c23a                	sw	a4,4(sp)
    24fc:	c03e                	sw	a5,0(sp)
    24fe:	c81e                	sw	t2,16(sp)
    2500:	87aa                	mv	a5,a0
    2502:	4705                	li	a4,1
    2504:	46a9                	li	a3,10
    2506:	4522                	lw	a0,8(sp)
    2508:	338d                	jal	226a <printLongLongInt>
    250a:	43c2                	lw	t2,16(sp)
    250c:	94aa                	add	s1,s1,a0
    250e:	841e                	mv	s0,t2
    2510:	42d2                	lw	t0,20(sp)
    2512:	b3c9                	j	22d4 <print+0x62>
    2514:	46b2                	lw	a3,12(sp)
    2516:	400c                	lw	a1,0(s0)
    2518:	c816                	sw	t0,16(sp)
    251a:	c236                	sw	a3,4(sp)
    251c:	c03a                	sw	a4,0(sp)
    251e:	0411                	addi	s0,s0,4
    2520:	872a                	mv	a4,a0
    2522:	4685                	li	a3,1
    2524:	4629                	li	a2,10
    2526:	4522                	lw	a0,8(sp)
    2528:	3915                	jal	215c <printInt>
    252a:	94aa                	add	s1,s1,a0
    252c:	b361                	j	22b4 <print+0x42>
    252e:	4691                	li	a3,4
    2530:	00d59d63          	bne	a1,a3,254a <print+0x2d8>
    2534:	00840393          	addi	t2,s0,8
    2538:	400c                	lw	a1,0(s0)
    253a:	4050                	lw	a2,4(s0)
    253c:	ca16                	sw	t0,20(sp)
    253e:	c23a                	sw	a4,4(sp)
    2540:	c03e                	sw	a5,0(sp)
    2542:	c81e                	sw	t2,16(sp)
    2544:	87aa                	mv	a5,a0
    2546:	4701                	li	a4,0
    2548:	bf75                	j	2504 <print+0x292>
    254a:	46b2                	lw	a3,12(sp)
    254c:	400c                	lw	a1,0(s0)
    254e:	c816                	sw	t0,16(sp)
    2550:	c236                	sw	a3,4(sp)
    2552:	c03a                	sw	a4,0(sp)
    2554:	0411                	addi	s0,s0,4
    2556:	872a                	mv	a4,a0
    2558:	4681                	li	a3,0
    255a:	b7e9                	j	2524 <print+0x2b2>
    255c:	46b2                	lw	a3,12(sp)
    255e:	c816                	sw	t0,16(sp)
    2560:	400c                	lw	a1,0(s0)
    2562:	4641                	li	a2,16
    2564:	c236                	sw	a3,4(sp)
    2566:	c03a                	sw	a4,0(sp)
    2568:	0411                	addi	s0,s0,4
    256a:	872a                	mv	a4,a0
    256c:	4681                	li	a3,0
    256e:	bf65                	j	2526 <print+0x2b4>
    2570:	4691                	li	a3,4
    2572:	00d59e63          	bne	a1,a3,258e <print+0x31c>
    2576:	00840393          	addi	t2,s0,8
    257a:	400c                	lw	a1,0(s0)
    257c:	4050                	lw	a2,4(s0)
    257e:	ca16                	sw	t0,20(sp)
    2580:	c23a                	sw	a4,4(sp)
    2582:	c03e                	sw	a5,0(sp)
    2584:	c81e                	sw	t2,16(sp)
    2586:	87aa                	mv	a5,a0
    2588:	4701                	li	a4,0
    258a:	46a1                	li	a3,8
    258c:	bfad                	j	2506 <print+0x294>
    258e:	46b2                	lw	a3,12(sp)
    2590:	400c                	lw	a1,0(s0)
    2592:	c816                	sw	t0,16(sp)
    2594:	c236                	sw	a3,4(sp)
    2596:	c03a                	sw	a4,0(sp)
    2598:	0411                	addi	s0,s0,4
    259a:	872a                	mv	a4,a0
    259c:	4681                	li	a3,0
    259e:	4621                	li	a2,8
    25a0:	b759                	j	2526 <print+0x2b4>
    25a2:	400c                	lw	a1,0(s0)
    25a4:	00840613          	addi	a2,s0,8
    25a8:	4040                	lw	s0,4(s0)
    25aa:	c23a                	sw	a4,4(sp)
    25ac:	872a                	mv	a4,a0
    25ae:	4522                	lw	a0,8(sp)
    25b0:	c832                	sw	a2,16(sp)
    25b2:	c03e                	sw	a5,0(sp)
    25b4:	8622                	mv	a2,s0
    25b6:	87b6                	mv	a5,a3
    25b8:	46a9                	li	a3,10
    25ba:	ca16                	sw	t0,20(sp)
    25bc:	394d                	jal	226e <printDouble>
    25be:	94aa                	add	s1,s1,a0
    25c0:	4442                	lw	s0,16(sp)
    25c2:	b7b9                	j	2510 <print+0x29e>

000025c4 <printf>:
    25c4:	fdc10113          	addi	sp,sp,-36
    25c8:	c82e                	sw	a1,16(sp)
    25ca:	ca32                	sw	a2,20(sp)
    25cc:	85aa                	mv	a1,a0
    25ce:	0810                	addi	a2,sp,16
    25d0:	4501                	li	a0,0
    25d2:	c606                	sw	ra,12(sp)
    25d4:	cc36                	sw	a3,24(sp)
    25d6:	ce3a                	sw	a4,28(sp)
    25d8:	d03e                	sw	a5,32(sp)
    25da:	c032                	sw	a2,0(sp)
    25dc:	3959                	jal	2272 <print>
    25de:	40b2                	lw	ra,12(sp)
    25e0:	02410113          	addi	sp,sp,36
    25e4:	8082                	ret

000025e6 <puts>:
    25e6:	1141                	addi	sp,sp,-16
    25e8:	c422                	sw	s0,8(sp)
    25ea:	c226                	sw	s1,4(sp)
    25ec:	c606                	sw	ra,12(sp)
    25ee:	211c                	lbu	a5,0(a0)
    25f0:	84aa                	mv	s1,a0
    25f2:	4401                	li	s0,0
    25f4:	81dc                	sb	a5,3(sp)
    25f6:	00310783          	lb	a5,3(sp)
    25fa:	0405                	addi	s0,s0,1
    25fc:	ef99                	bnez	a5,261a <puts+0x34>
    25fe:	47a9                	li	a5,10
    2600:	00310593          	addi	a1,sp,3
    2604:	4605                	li	a2,1
    2606:	4501                	li	a0,0
    2608:	81dc                	sb	a5,3(sp)
    260a:	9a7ff0ef          	jal	ra,1fb0 <_write>
    260e:	8522                	mv	a0,s0
    2610:	40b2                	lw	ra,12(sp)
    2612:	4422                	lw	s0,8(sp)
    2614:	4492                	lw	s1,4(sp)
    2616:	0141                	addi	sp,sp,16
    2618:	8082                	ret
    261a:	4605                	li	a2,1
    261c:	00310593          	addi	a1,sp,3
    2620:	4501                	li	a0,0
    2622:	98fff0ef          	jal	ra,1fb0 <_write>
    2626:	008487b3          	add	a5,s1,s0
    262a:	239c                	lbu	a5,0(a5)
    262c:	81dc                	sb	a5,3(sp)
    262e:	b7e1                	j	25f6 <puts+0x10>
    2630:	4d4e                	lw	s10,208(sp)
    2632:	5f49                	li	t5,-14
    2634:	6148                	flw	fa0,4(a0)
    2636:	646e                	flw	fs0,216(sp)
    2638:	656c                	flw	fa1,76(a0)
    263a:	0d72                	slli	s10,s10,0x1c
    263c:	0000                	unimp
    263e:	0000                	unimp
    2640:	6148                	flw	fa0,4(a0)
    2642:	6472                	flw	fs0,28(sp)
    2644:	6146                	flw	ft2,80(sp)
    2646:	6c75                	lui	s8,0x1d
    2648:	5f74                	lw	a3,124(a4)
    264a:	6148                	flw	fa0,4(a0)
    264c:	646e                	flw	fs0,216(sp)
    264e:	656c                	flw	fa1,76(a0)
    2650:	0d72                	slli	s10,s10,0x1c
    2652:	0000                	unimp
    2654:	74737953          	0x74737953
    2658:	6d65                	lui	s10,0x19
    265a:	3a6b6c43          	fmadd.d	fs8,fs6,ft6,ft7,unknown
    265e:	6425                	lui	s0,0x9
    2660:	0a0d                	addi	s4,s4,3
    2662:	0000                	unimp
    2664:	7250                	flw	fa2,36(a2)
    2666:	7365                	lui	t1,0xffff9
    2668:	00000073          	ecall
    266c:	63696c43          	fmadd.d	fs8,fs2,fs6,fa2,unknown
    2670:	0000006b          	0x6b
    2674:	6f48                	flw	fa0,28(a4)
    2676:	646c                	flw	fa1,76(s0)
    2678:	0000                	unimp
    267a:	0000                	unimp
    267c:	6552                	flw	fa0,20(sp)
    267e:	656c                	flw	fa1,76(a0)
    2680:	7361                	lui	t1,0xffff8
    2682:	4865                	li	a6,25
    2684:	00646c6f          	jal	s8,4868a <_data_lma+0x45f8a>
    2688:	70657453          	0x70657453
    268c:	0000                	unimp
    268e:	0000                	unimp
    2690:	6572                	flw	fa0,28(sp)
    2692:	656c                	flw	fa1,76(a0)
    2694:	7361                	lui	t1,0xffff8
    2696:	5365                	li	t1,-7
    2698:	6574                	flw	fa3,76(a0)
    269a:	0070                	addi	a2,sp,12
    269c:	6552                	flw	fa0,20(sp)
    269e:	656c                	flw	fa1,76(a0)
    26a0:	7361                	lui	t1,0xffff8
    26a2:	0065                	c.nop	25
    26a4:	63696c43          	fmadd.d	fs8,fs2,fs6,fa2,unknown
    26a8:	203a736b          	0x203a736b
    26ac:	6425                	lui	s0,0x9
    26ae:	000a                	c.slli	zero,0x2
    26b0:	6954                	flw	fa3,20(a0)
    26b2:	656d                	lui	a0,0x1b
    26b4:	0074756f          	jal	a0,49eba <_data_lma+0x477ba>
    26b8:	056e                	slli	a0,a0,0x1b
    26ba:	0000                	unimp
    26bc:	0580                	addi	s0,sp,704
    26be:	0000                	unimp
    26c0:	06c0                	addi	s0,sp,836
    26c2:	0000                	unimp
    26c4:	0590                	addi	a2,sp,704
    26c6:	0000                	unimp
    26c8:	05f2                	slli	a1,a1,0x1c
    26ca:	0000                	unimp
    26cc:	06b8                	addi	a4,sp,840
    26ce:	0000                	unimp
    26d0:	05fc                	addi	a5,sp,716
    26d2:	0000                	unimp
    26d4:	064c                	addi	a1,sp,772
    26d6:	0000                	unimp
    26d8:	0656                	slli	a2,a2,0x15
    26da:	0000                	unimp
    26dc:	06b8                	addi	a4,sp,840
    26de:	0000                	unimp
    26e0:	06ca                	slli	a3,a3,0x12
    26e2:	0000                	unimp
    26e4:	06ee                	slli	a3,a3,0x1b
    26e6:	0000                	unimp
    26e8:	0734                	addi	a3,sp,904
    26ea:	0000                	unimp
    26ec:	0746                	slli	a4,a4,0x11
    26ee:	0000                	unimp
    26f0:	0786                	slli	a5,a5,0x1
    26f2:	0000                	unimp
    26f4:	6e28                	flw	fa0,88(a2)
    26f6:	6c75                	lui	s8,0x1d
    26f8:	296c                	lbu	a1,22(a0)
	...
